

Microchip MPLAB XC8 Assembler V2.46 build 20240104201356 
                                                                                               Thu Jun 13 13:39:36 2024

Microchip MPLAB XC8 C Compiler v2.46 (Free license) build 20240104201356 Og1 
     1                           	processor	18F45K50
     2                           	fnconf	rparam,??,?,0
     3                           	pagewidth 120
     4                           	opt	flic
     5                           	psect	idataBANK0,global,class=CODE,delta=1,noexec
     6                           	psect	idataBANK1,global,class=CODE,delta=1,noexec
     7                           	psect	_firma_text,global,ovrld,reloc=2,class=CODE,delta=1,noexec
     8                           	psect	nvBANK0,global,class=BANK0,space=1,delta=1,lowdata,noexec
     9                           	psect	smallconst,global,reloc=2,class=SMALLCONST,delta=1,noexec
    10                           	psect	cinit,global,reloc=2,class=CODE,delta=1
    11                           	psect	bssCOMRAM,global,class=COMRAM,space=1,delta=1,lowdata,noexec
    12                           	psect	dataBANK0,global,class=BANK0,space=1,delta=1,lowdata,noexec
    13                           	psect	bssBANK1,global,class=BANK1,space=1,delta=1,lowdata,noexec
    14                           	psect	dataBANK1,global,class=BANK1,space=1,delta=1,lowdata,noexec
    15                           	psect	cstackBANK1,global,class=BANK1,space=1,delta=1,lowdata,noexec
    16                           	psect	cstackBANK0,global,class=BANK0,space=1,delta=1,lowdata,noexec
    17                           	psect	cstackCOMRAM,global,class=COMRAM,space=1,delta=1,lowdata,noexec
    18                           	psect	text0,global,reloc=2,class=CODE,delta=1
    19                           	psect	text1,global,reloc=2,class=CODE,delta=1
    20                           	psect	text2,global,reloc=2,class=CODE,delta=1
    21                           	psect	intcodelo,global,reloc=2,class=CODE,delta=1
    22                           	psect	text4,global,reloc=2,class=CODE,delta=1,group=2
    23                           	psect	intcode,global,reloc=2,class=CODE,delta=1
    24                           	psect	intcode_body,global,reloc=2,class=CODE,delta=1
    25                           	psect	text6,global,reloc=2,class=CODE,delta=1
    26                           	psect	text7,global,reloc=2,class=CODE,delta=1,group=2
    27                           	psect	text8,global,reloc=2,class=CODE,delta=1
    28                           	psect	text9,global,reloc=2,class=CODE,delta=1
    29                           	psect	text10,global,reloc=2,class=CODE,delta=1,group=3
    30                           	psect	text11,global,reloc=2,class=CODE,delta=1,group=3
    31                           	psect	text12,global,reloc=2,class=CODE,delta=1,group=1
    32                           	psect	text13,global,reloc=2,class=CODE,delta=1,group=1
    33                           	psect	text14,global,reloc=2,class=CODE,delta=1
    34                           	psect	text15,global,reloc=2,class=CODE,delta=1,group=3
    35                           	psect	text16,global,reloc=2,class=CODE,delta=1,group=3
    36                           	psect	text17,global,reloc=2,class=CODE,delta=1,group=3
    37                           	psect	text18,global,reloc=2,class=CODE,delta=1,group=2
    38                           	psect	intsave_regs,global,class=BIGRAM,space=1,delta=1,noexec
    39                           	psect	rparam,global,class=COMRAM,space=1,delta=1,noexec
    40                           	psect	temp,global,ovrld,common,class=COMRAM,space=1,delta=1,lowdata
    41                           	psect	idloc,global,abs,ovrld,class=IDLOC,space=5,delta=1,noexec
    42                           	psect	config,global,abs,ovrld,class=CONFIG,space=4,delta=1,noexec
    43   000000                     
    44                           ; Generated 05/01/2024 GMT
    45                           ; 
    46                           ; Copyright © 2024, Microchip Technology Inc. and its subsidiaries ("Microchip")
    47                           ; All rights reserved.
    48                           ; 
    49                           ; This software is developed by Microchip Technology Inc. and its subsidiaries ("Microch
      +                          ip").
    50                           ; 
    51                           ; Redistribution and use in source and binary forms, with or without modification, are
    52                           ; permitted provided that the following conditions are met:
    53                           ; 
    54                           ;     1. Redistributions of source code must retain the above copyright notice, this lis
      +                          t of
    55                           ;        conditions and the following disclaimer.
    56                           ; 
    57                           ;     2. Redistributions in binary form must reproduce the above copyright notice, this 
      +                          list
    58                           ;        of conditions and the following disclaimer in the documentation and/or other
    59                           ;        materials provided with the distribution. Publication is not required when
    60                           ;        this file is used in an embedded application.
    61                           ; 
    62                           ;     3. Microchip's name may not be used to endorse or promote products derived from th
      +                          is
    63                           ;        software without specific prior written permission.
    64                           ; 
    65                           ; THIS SOFTWARE IS PROVIDED BY MICROCHIP "AS IS" AND ANY EXPRESS OR IMPLIED WARRANTIES,
    66                           ; INCLUDING, BUT NOT LIMITED TO, THE IMPLIED WARRANTIES OF MERCHANTABILITY AND FITNESS F
      +                          OR
    67                           ; PURPOSE ARE DISCLAIMED.  IN NO EVENT SHALL MICROCHIP BE LIABLE FOR ANY DIRECT, INDIREC
      +                          T,
    68                           ; INCIDENTAL, SPECIAL, EXEMPLARY, OR CONSEQUENTIAL DAMAGES (INCLUDING BUT NOT LIMITED TO
    69                           ; PROCUREMENT OF SUBSTITUTE GOODS OR SERVICES; LOSS OF USE, DATA OR PROFITS; OR BUSINESS
    70                           ; INTERRUPTION) HOWSOEVER CAUSED AND ON ANY THEORY OF LIABILITY, WHETHER IN CONTRACT, ST
      +                          RICT
    71                           ; LIABILITY, OR TORT (INCLUDING NEGLIGENCE OR OTHERWISE) ARISING IN ANY WAY OUT OF THE U
      +                          SE OF
    72                           ; THIS SOFTWARE, EVEN IF ADVISED OF THE POSSIBILITY OF SUCH DAMAGE.
    73                           ; 
    74                           ; 
    75                           ; Code-generator required, PIC18F45K50 Definitions
    76                           ; 
    77                           ; SFR Addresses
    78   000000                     
    79                           	psect	idataBANK0
    80   001E1C                     __pidataBANK0:
    81                           	callstack 0
    82                           
    83                           ;initializer for _tiempo_actual
    84   001E1C  20                 	db	32
    85   001E1D  54                 	db	84
    86   001E1E  69                 	db	105
    87   001E1F  65                 	db	101
    88   001E20  6D                 	db	109
    89   001E21  70                 	db	112
    90   001E22  6F                 	db	111
    91   001E23  20                 	db	32
    92   001E24  61                 	db	97
    93   001E25  63                 	db	99
    94   001E26  74                 	db	116
    95   001E27  75                 	db	117
    96   001E28  61                 	db	97
    97   001E29  6C                 	db	108
    98   001E2A  20                 	db	32
    99                           
   100                           ;initializer for _form_tiempo2
   101   001E2B  54                 	db	84
   102   001E2C  49                 	db	73
   103   001E2D  45                 	db	69
   104   001E2E  4D                 	db	77
   105   001E2F  50                 	db	80
   106   001E30  4F                 	db	79
   107   001E31  3D                 	db	61
   108                           
   109                           ;initializer for _form_tiempo1
   110   001E32  74                 	db	116
   111   001E33  69                 	db	105
   112   001E34  65                 	db	101
   113   001E35  6D                 	db	109
   114   001E36  70                 	db	112
   115   001E37  6F                 	db	111
   116   001E38  3D                 	db	61
   117                           
   118                           ;initializer for _ms
   119   001E39  20                 	db	32
   120   001E3A  6D                 	db	109
   121   001E3B  73                 	db	115
   122                           
   123                           ;initializer for _error
   124   001E3C  65                 	db	101
   125   001E3D  72                 	db	114
   126   001E3E  72                 	db	114
   127   001E3F  6F                 	db	111
   128   001E40  72                 	db	114
   129                           
   130                           	psect	idataBANK1
   131   001DC8                     __pidataBANK1:
   132                           	callstack 0
   133                           
   134                           ;initializer for _datos_rec
   135   001DC8  20                 	db	32
   136   001DC9  44                 	db	68
   137   001DCA  61                 	db	97
   138   001DCB  74                 	db	116
   139   001DCC  6F                 	db	111
   140   001DCD  73                 	db	115
   141   001DCE  20                 	db	32
   142   001DCF  72                 	db	114
   143   001DD0  65                 	db	101
   144   001DD1  63                 	db	99
   145   001DD2  69                 	db	105
   146   001DD3  62                 	db	98
   147   001DD4  69                 	db	105
   148   001DD5  64                 	db	100
   149   001DD6  6F                 	db	111
   150   001DD7  73                 	db	115
   151   001DD8  20                 	db	32
   152   001DD9  73                 	db	115
   153   001DDA  69                 	db	105
   154   001DDB  6E                 	db	110
   155   001DDC  20                 	db	32
   156   001DDD  65                 	db	101
   157   001DDE  72                 	db	114
   158   001DDF  72                 	db	114
   159   001DE0  6F                 	db	111
   160   001DE1  72                 	db	114
   161   001DE2  20                 	db	32
   162                           
   163                           ;initializer for _listo
   164   001DE3  20                 	db	32
   165   001DE4  4C                 	db	76
   166   001DE5  69                 	db	105
   167   001DE6  73                 	db	115
   168   001DE7  74                 	db	116
   169   001DE8  6F                 	db	111
   170   001DE9  20                 	db	32
   171   001DEA  70                 	db	112
   172   001DEB  61                 	db	97
   173   001DEC  72                 	db	114
   174   001DED  61                 	db	97
   175   001DEE  20                 	db	32
   176   001DEF  72                 	db	114
   177   001DF0  65                 	db	101
   178   001DF1  63                 	db	99
   179   001DF2  69                 	db	105
   180   001DF3  62                 	db	98
   181   001DF4  69                 	db	105
   182   001DF5  72                 	db	114
   183   000000                     _firma_absaddr	set	4102
   184   000000                     _firma_absaddr	set	4102
   185                           
   186                           	psect	_firma_text
   187   001006                     __p_firma_text:
   188                           	callstack 0
   189   001006                     _firma:
   190                           	callstack 0
   191   001006  600D               	dw	24589
   192   001008                     __end_of_firma:
   193                           	callstack 0
   194   000000                     _TXSTA1bits	set	4012
   195   000000                     _TXREG1	set	4013
   196                           
   197                           	psect	nvBANK0
   198   0000ED                     __pnvBANK0:
   199                           	callstack 0
   200   0000ED                     _tiempo:
   201                           	callstack 0
   202   0000ED                     	ds	2
   203   000000                     _INTCON	set	4082
   204   000000                     _RCSTAbits	set	4011
   205   000000                     _ANSELA	set	3931
   206   000000                     _LATA	set	3977
   207   000000                     _PIR1bits	set	3998
   208   000000                     _RCSTA1bits	set	4011
   209   000000                     _RCREG1	set	4014
   210   000000                     _BAUDCON1	set	4024
   211   000000                     _SPBRGH1	set	4016
   212   000000                     _SPBRG1	set	4015
   213   000000                     _RCONbits	set	4048
   214   000000                     _OSCCON2	set	4050
   215   000000                     _OSCCON	set	4051
   216   000000                     _T0CONbits	set	4053
   217   000000                     _TMR0L	set	4054
   218   000000                     _TMR0H	set	4055
   219   000000                     _INTCONbits	set	4082
   220   000000                     _INTCON2bits	set	4081
   221   000000                     _TRISA	set	3986
   222   000000                     _OSCTUNE	set	3995
   223   000000                     _TRISE	set	3990
   224   000000                     _TRISD	set	3989
   225   000000                     _TRISC	set	3988
   226   000000                     _TRISB	set	3987
   227   000000                     _ANSELE	set	3935
   228   000000                     _ANSELD	set	3934
   229   000000                     _ANSELC	set	3933
   230   000000                     _ANSELB	set	3932
   231                           
   232                           	psect	smallconst
   233   0010B4                     __psmallconst:
   234                           	callstack 0
   235   0010B4  00                 	db	0
   236   0010B5                     STR_2:
   237   0010B5  20                 	db	32
   238   0010B6  54                 	db	84	;'T'
   239   0010B7  69                 	db	105	;'i'
   240   0010B8  65                 	db	101	;'e'
   241   0010B9  6D                 	db	109	;'m'
   242   0010BA  70                 	db	112	;'p'
   243   0010BB  6F                 	db	111	;'o'
   244   0010BC  20                 	db	32
   245   0010BD  61                 	db	97	;'a'
   246   0010BE  63                 	db	99	;'c'
   247   0010BF  74                 	db	116	;'t'
   248   0010C0  75                 	db	117	;'u'
   249   0010C1  61                 	db	97	;'a'
   250   0010C2  6C                 	db	108	;'l'
   251   0010C3  20                 	db	32
   252   0010C4  00                 	db	0
   253   0010C5                     STR_6:
   254   0010C5  44                 	db	68	;'D'
   255   0010C6  61                 	db	97	;'a'
   256   0010C7  74                 	db	116	;'t'
   257   0010C8  6F                 	db	111	;'o'
   258   0010C9  73                 	db	115	;'s'
   259   0010CA  20                 	db	32
   260   0010CB  72                 	db	114	;'r'
   261   0010CC  65                 	db	101	;'e'
   262   0010CD  63                 	db	99	;'c'
   263   0010CE  69                 	db	105	;'i'
   264   0010CF  62                 	db	98	;'b'
   265   0010D0  69                 	db	105	;'i'
   266   0010D1  64                 	db	100	;'d'
   267   0010D2  6F                 	db	111	;'o'
   268   0010D3  73                 	db	115	;'s'
   269   0010D4  00                 	db	0
   270   0010D5                     STR_1:
   271   0010D5  20                 	db	32
   272   0010D6  45                 	db	69	;'E'
   273   0010D7  72                 	db	114	;'r'
   274   0010D8  72                 	db	114	;'r'
   275   0010D9  6F                 	db	111	;'o'
   276   0010DA  72                 	db	114	;'r'
   277   0010DB  00                 	db	0
   278   0010DC                     STR_8:
   279   0010DC  25                 	db	37
   280   0010DD  64                 	db	100	;'d'
   281   0010DE  00                 	db	0
   282   0010DF                     STR_9:
   283   0010DF  25                 	db	37
   284   0010E0  73                 	db	115	;'s'
   285   0010E1  00                 	db	0
   286   0010E2  00                 	db	0	; dummy byte at the end
   287   000000                     
   288                           ; #config settings
   289                           
   290                           	psect	cinit
   291   001B96                     __pcinit:
   292                           	callstack 0
   293   001B96                     start_initialization:
   294                           	callstack 0
   295   001B96                     __initialization:
   296                           	callstack 0
   297                           
   298                           ; Initialize objects allocated to BANK1 (46 bytes)
   299                           ; load TBLPTR registers with __pidataBANK1
   300   001B96  0EC8               	movlw	low __pidataBANK1
   301   001B98  6EF6               	movwf	tblptrl,c
   302   001B9A  0E1D               	movlw	high __pidataBANK1
   303   001B9C  6EF7               	movwf	tblptrh,c
   304   001B9E  0E00               	movlw	low (__pidataBANK1 shr (0+16))
   305   001BA0  6EF8               	movwf	tblptru,c
   306   001BA2  EE01  F000         	lfsr	0,__pdataBANK1
   307   001BA6  EE10 F02E          	lfsr	1,46
   308   001BAA                     copy_data0:
   309   001BAA  0009               	tblrd		*+
   310   001BAC  CFF5 FFEE          	movff	tablat,postinc0
   311   001BB0  50E5               	movf	postdec1,w,c
   312   001BB2  50E1               	movf	fsr1l,w,c
   313   001BB4  E1FA               	bnz	copy_data0
   314                           
   315                           ; Initialize objects allocated to BANK0 (37 bytes)
   316                           ; load TBLPTR registers with __pidataBANK0
   317   001BB6  0E1C               	movlw	low __pidataBANK0
   318   001BB8  6EF6               	movwf	tblptrl,c
   319   001BBA  0E1E               	movlw	high __pidataBANK0
   320   001BBC  6EF7               	movwf	tblptrh,c
   321   001BBE  0E00               	movlw	low (__pidataBANK0 shr (0+16))
   322   001BC0  6EF8               	movwf	tblptru,c
   323   001BC2  EE00  F0C8         	lfsr	0,__pdataBANK0
   324   001BC6  EE10 F025          	lfsr	1,37
   325   001BCA                     copy_data1:
   326   001BCA  0009               	tblrd		*+
   327   001BCC  CFF5 FFEE          	movff	tablat,postinc0
   328   001BD0  50E5               	movf	postdec1,w,c
   329   001BD2  50E1               	movf	fsr1l,w,c
   330   001BD4  E1FA               	bnz	copy_data1
   331                           
   332                           ; Clear objects allocated to BANK1 (37 bytes)
   333   001BD6  EE01  F02E         	lfsr	0,__pbssBANK1
   334   001BDA  0E25               	movlw	37
   335   001BDC                     clear_0:
   336   001BDC  6AEE               	clrf	postinc0,c
   337   001BDE  06E8               	decf	wreg,f,c
   338   001BE0  E1FD               	bnz	clear_0
   339                           
   340                           ; Clear objects allocated to COMRAM (9 bytes)
   341   001BE2  EE00  F056         	lfsr	0,__pbssCOMRAM
   342   001BE6  0E09               	movlw	9
   343   001BE8                     clear_1:
   344   001BE8  6AEE               	clrf	postinc0,c
   345   001BEA  06E8               	decf	wreg,f,c
   346   001BEC  E1FD               	bnz	clear_1
   347   001BEE                     end_of_initialization:
   348                           	callstack 0
   349   001BEE                     __end_of__initialization:
   350                           	callstack 0
   351   001BEE  905F               	bcf	int$flags,0,c	;clear compiler interrupt flag (level 1)
   352   001BF0  925F               	bcf	int$flags,1,c	;clear compiler interrupt flag (level 2)
   353   001BF2  0E00               	movlw	low (__Lmediumconst shr (0+16))
   354   001BF4  6EF8               	movwf	tblptru,c
   355   001BF6  0100               	movlb	0
   356   001BF8  EF50  F00E         	goto	_main	;jump to C main() function
   357                           
   358                           	psect	bssCOMRAM
   359   000056                     __pbssCOMRAM:
   360                           	callstack 0
   361   000056                     _width:
   362                           	callstack 0
   363   000056                     	ds	2
   364   000058                     _prec:
   365                           	callstack 0
   366   000058                     	ds	2
   367   00005A                     _carac_rx:
   368                           	callstack 0
   369   00005A                     	ds	2
   370   00005C                     _acumulador:
   371                           	callstack 0
   372   00005C                     	ds	2
   373   00005E                     _flags:
   374                           	callstack 0
   375   00005E                     	ds	1
   376                           
   377                           	psect	dataBANK0
   378   0000C8                     __pdataBANK0:
   379                           	callstack 0
   380   0000C8                     _tiempo_actual:
   381                           	callstack 0
   382   0000C8                     	ds	15
   383   0000D7                     _form_tiempo2:
   384                           	callstack 0
   385   0000D7                     	ds	7
   386   0000DE                     _form_tiempo1:
   387                           	callstack 0
   388   0000DE                     	ds	7
   389   0000E5                     _ms:
   390                           	callstack 0
   391   0000E5                     	ds	3
   392   0000E8                     _error:
   393                           	callstack 0
   394   0000E8                     	ds	5
   395                           
   396                           	psect	bssBANK1
   397   00012E                     __pbssBANK1:
   398                           	callstack 0
   399   00012E                     _dbuf:
   400                           	callstack 0
   401   00012E                     	ds	32
   402   00014E                     _num_int:
   403                           	callstack 0
   404   00014E                     	ds	2
   405   000150                     _contador:
   406                           	callstack 0
   407   000150                     	ds	2
   408   000152                     _cuenta:
   409                           	callstack 0
   410   000152                     	ds	1
   411                           
   412                           	psect	dataBANK1
   413   000100                     __pdataBANK1:
   414                           	callstack 0
   415   000100                     _datos_rec:
   416                           	callstack 0
   417   000100                     	ds	27
   418   00011B                     _listo:
   419                           	callstack 0
   420   00011B                     	ds	19
   421                           
   422                           	psect	cstackBANK1
   423   000153                     __pcstackBANK1:
   424                           	callstack 0
   425   000153                     ?___awdiv:
   426                           	callstack 0
   427   000153                     ___awdiv@dividend:
   428                           	callstack 0
   429                           
   430                           ; 2 bytes @ 0x0
   431   000153                     	ds	2
   432   000155                     ___awdiv@divisor:
   433                           	callstack 0
   434                           
   435                           ; 2 bytes @ 0x2
   436   000155                     	ds	2
   437   000157                     ___awdiv@counter:
   438                           	callstack 0
   439                           
   440                           ; 1 bytes @ 0x4
   441   000157                     	ds	1
   442   000158                     ___awdiv@sign:
   443                           	callstack 0
   444                           
   445                           ; 1 bytes @ 0x5
   446   000158                     	ds	1
   447   000159                     ___awdiv@quotient:
   448                           	callstack 0
   449                           
   450                           ; 2 bytes @ 0x6
   451   000159                     	ds	2
   452   00015B                     ??_lint:
   453                           
   454                           ; 1 bytes @ 0x8
   455   00015B                     	ds	3
   456   00015E                     Envia_text@texto:
   457                           	callstack 0
   458                           
   459                           ; 2 bytes @ 0xB
   460   00015E                     	ds	2
   461   000160                     Envia_text@num_let:
   462                           	callstack 0
   463                           
   464                           ; 2 bytes @ 0xD
   465   000160                     	ds	2
   466   000162                     ??_Envia_text:
   467                           
   468                           ; 1 bytes @ 0xF
   469   000162                     	ds	1
   470   000163                     Envia_text@i:
   471                           	callstack 0
   472                           
   473                           ; 2 bytes @ 0x10
   474   000163                     	ds	2
   475   000165                     
   476                           ; 2 bytes @ 0x12
   477   000165                     	ds	2
   478   000167                     
   479                           ; 3 bytes @ 0x14
   480   000167                     	ds	3
   481   00016A                     
   482                           ; 1 bytes @ 0x17
   483                           
   484                           	psect	cstackBANK0
   485   000060                     __pcstackBANK0:
   486                           	callstack 0
   487   000060                     Envia_cadena@buffer:
   488                           	callstack 0
   489                           
   490                           ; 100 bytes @ 0x0
   491   000060                     	ds	100
   492   0000C4                     Envia_cadena@cantidad:
   493                           	callstack 0
   494                           
   495                           ; 2 bytes @ 0x64
   496   0000C4                     	ds	2
   497   0000C6                     Envia_cadena@i:
   498                           	callstack 0
   499                           
   500                           ; 2 bytes @ 0x66
   501   0000C6                     	ds	2
   502                           
   503                           	psect	cstackCOMRAM
   504   000001                     __pcstackCOMRAM:
   505                           	callstack 0
   506   000001                     ?_strlen:
   507                           	callstack 0
   508   000001                     ?___wmul:
   509                           	callstack 0
   510   000001                     ?___awmod:
   511                           	callstack 0
   512   000001                     ?i2___awdiv:
   513                           	callstack 0
   514   000001                     strlen@s:
   515                           	callstack 0
   516   000001                     ___wmul@multiplier:
   517                           	callstack 0
   518   000001                     ___awmod@dividend:
   519                           	callstack 0
   520   000001                     fputc@c:
   521                           	callstack 0
   522   000001                     i2Envia_text@texto:
   523                           	callstack 0
   524   000001                     i2___awdiv@dividend:
   525                           	callstack 0
   526                           
   527                           ; 2 bytes @ 0x0
   528   000001                     	ds	2
   529   000003                     fputc@fp:
   530                           	callstack 0
   531   000003                     strlen@a:
   532                           	callstack 0
   533   000003                     ___wmul@multiplicand:
   534                           	callstack 0
   535   000003                     ___awmod@divisor:
   536                           	callstack 0
   537   000003                     i2Envia_text@num_let:
   538                           	callstack 0
   539   000003                     i2___awdiv@divisor:
   540                           	callstack 0
   541                           
   542                           ; 2 bytes @ 0x2
   543   000003                     	ds	1
   544   000004                     ??_fputc:
   545                           
   546                           ; 1 bytes @ 0x3
   547   000004                     	ds	1
   548   000005                     ??i2_Envia_text:
   549   000005                     ___awmod@counter:
   550                           	callstack 0
   551   000005                     i2___awdiv@counter:
   552                           	callstack 0
   553   000005                     ___wmul@product:
   554                           	callstack 0
   555                           
   556                           ; 2 bytes @ 0x4
   557   000005                     	ds	1
   558   000006                     ___awmod@sign:
   559                           	callstack 0
   560   000006                     i2___awdiv@sign:
   561                           	callstack 0
   562   000006                     i2Envia_text@i:
   563                           	callstack 0
   564                           
   565                           ; 2 bytes @ 0x5
   566   000006                     	ds	1
   567   000007                     ?_abs:
   568                           	callstack 0
   569   000007                     abs@a:
   570                           	callstack 0
   571   000007                     i2___awdiv@quotient:
   572                           	callstack 0
   573                           
   574                           ; 2 bytes @ 0x6
   575   000007                     	ds	2
   576   000009                     ??_abs:
   577                           
   578                           ; 1 bytes @ 0x8
   579   000009                     	ds	2
   580   00000B                     vfpfcnvrt@fp:
   581                           	callstack 0
   582                           
   583                           ; 1 bytes @ 0xA
   584   00000B                     	ds	1
   585   00000C                     vfpfcnvrt@fmt:
   586                           	callstack 0
   587                           
   588                           ; 1 bytes @ 0xB
   589   00000C                     	ds	1
   590   00000D                     vfpfcnvrt@ap:
   591                           	callstack 0
   592                           
   593                           ; 1 bytes @ 0xC
   594   00000D                     	ds	1
   595   00000E                     ??_vfpfcnvrt:
   596                           
   597                           ; 1 bytes @ 0xD
   598   00000E                     	ds	1
   599   00000F                     vfpfcnvrt@cp_1222:
   600                           	callstack 0
   601                           
   602                           ; 2 bytes @ 0xE
   603   00000F                     	ds	2
   604   000011                     vfpfcnvrt@done:
   605                           	callstack 0
   606                           
   607                           ; 1 bytes @ 0x10
   608   000011                     	ds	1
   609   000012                     vfpfcnvrt@cp:
   610                           	callstack 0
   611                           
   612                           ; 1 bytes @ 0x11
   613   000012                     	ds	1
   614   000013                     vfpfcnvrt@convarg:
   615                           	callstack 0
   616                           
   617                           ; 4 bytes @ 0x12
   618   000013                     	ds	4
   619   000017                     vfpfcnvrt@c:
   620                           	callstack 0
   621                           
   622                           ; 1 bytes @ 0x16
   623   000017                     	ds	1
   624   000018                     ?_vfprintf:
   625                           	callstack 0
   626   000018                     vfprintf@fp:
   627                           	callstack 0
   628                           
   629                           ; 1 bytes @ 0x17
   630   000018                     	ds	1
   631   000019                     vfprintf@fmt:
   632                           	callstack 0
   633                           
   634                           ; 1 bytes @ 0x18
   635   000019                     	ds	1
   636   00001A                     vfprintf@ap:
   637                           	callstack 0
   638                           
   639                           ; 1 bytes @ 0x19
   640   00001A                     	ds	1
   641   00001B                     vfprintf@cfmt:
   642                           	callstack 0
   643                           
   644                           ; 1 bytes @ 0x1A
   645   00001B                     	ds	1
   646   00001C                     ?_sprintf:
   647                           	callstack 0
   648   00001C                     sprintf@s:
   649                           	callstack 0
   650                           
   651                           ; 1 bytes @ 0x1B
   652   00001C                     	ds	1
   653   00001D                     sprintf@fmt:
   654                           	callstack 0
   655                           
   656                           ; 1 bytes @ 0x1C
   657   00001D                     	ds	3
   658   000020                     sprintf@ap:
   659                           	callstack 0
   660                           
   661                           ; 1 bytes @ 0x1F
   662   000020                     	ds	1
   663   000021                     sprintf@f:
   664                           	callstack 0
   665                           
   666                           ; 12 bytes @ 0x20
   667   000021                     	ds	12
   668   00002D                     Envia_cadena@texto:
   669                           	callstack 0
   670   00002D                     Envia_tiempo@tiempo:
   671                           	callstack 0
   672                           
   673                           ; 2 bytes @ 0x2C
   674   00002D                     	ds	1
   675   00002E                     
   676                           ; 1 bytes @ 0x2D
   677   00002E                     	ds	1
   678   00002F                     ??_Envia_tiempo:
   679                           
   680                           ; 1 bytes @ 0x2E
   681   00002F                     	ds	1
   682   000030                     Envia_tiempo@buffer:
   683                           	callstack 0
   684                           
   685                           ; 10 bytes @ 0x2F
   686   000030                     	ds	10
   687   00003A                     Envia_tiempo@cant_digitos:
   688                           	callstack 0
   689                           
   690                           ; 2 bytes @ 0x39
   691   00003A                     	ds	2
   692   00003C                     Envia_tiempo@tiempo1:
   693                           	callstack 0
   694                           
   695                           ; 2 bytes @ 0x3B
   696   00003C                     	ds	2
   697   00003E                     Envia_tiempo@i:
   698                           	callstack 0
   699                           
   700                           ; 2 bytes @ 0x3D
   701   00003E                     	ds	2
   702   000040                     ??_hint:
   703                           
   704                           ; 1 bytes @ 0x3F
   705   000040                     	ds	11
   706   00004B                     hint@numero:
   707                           	callstack 0
   708                           
   709                           ; 2 bytes @ 0x4A
   710   00004B                     	ds	2
   711   00004D                     hint@numero_335:
   712                           	callstack 0
   713                           
   714                           ; 2 bytes @ 0x4C
   715   00004D                     	ds	2
   716   00004F                     hint@textot:
   717                           	callstack 0
   718                           
   719                           ; 1 bytes @ 0x4E
   720   00004F                     	ds	1
   721   000050                     hint@texto2:
   722                           	callstack 0
   723                           
   724                           ; 1 bytes @ 0x4F
   725   000050                     	ds	1
   726   000051                     hint@texto3:
   727                           	callstack 0
   728                           
   729                           ; 1 bytes @ 0x50
   730   000051                     	ds	1
   731   000052                     hint@texto4:
   732                           	callstack 0
   733                           
   734                           ; 1 bytes @ 0x51
   735   000052                     	ds	1
   736   000053                     hint@texto5:
   737                           	callstack 0
   738                           
   739                           ; 1 bytes @ 0x52
   740   000053                     	ds	1
   741   000054                     hint@texto6:
   742                           	callstack 0
   743                           
   744                           ; 1 bytes @ 0x53
   745   000054                     	ds	1
   746   000055                     hint@rx_buf:
   747                           	callstack 0
   748                           
   749                           ; 1 bytes @ 0x54
   750   000055                     	ds	1
   751                           
   752 ;;
   753 ;;Main: autosize = 0, tempsize = 0, incstack = 0, save=0
   754 ;;
   755 ;; *************** function _main *****************
   756 ;; Defined at:
   757 ;;		line 191 in file "main.c"
   758 ;; Parameters:    Size  Location     Type
   759 ;;  argc            2   18[BANK1 ] int 
   760 ;;  argv            3   20[BANK1 ] PTR PTR unsigned char 
   761 ;; Auto vars:     Size  Location     Type
   762 ;;		None
   763 ;; Return value:  Size  Location     Type
   764 ;;                  2   18[BANK1 ] int 
   765 ;; Registers used:
   766 ;;		wreg, fsr2l, fsr2h, status,2, status,0, cstack
   767 ;; Tracked objects:
   768 ;;		On entry : 0/0
   769 ;;		On exit  : 0/0
   770 ;;		Unchanged: 0/0
   771 ;; Data sizes:     COMRAM   BANK0   BANK1   BANK2   BANK3   BANK4   BANK5   BANK6   BANK7
   772 ;;      Params:         0       0       5       0       0       0       0       0       0
   773 ;;      Locals:         0       0       0       0       0       0       0       0       0
   774 ;;      Temps:          0       0       0       0       0       0       0       0       0
   775 ;;      Totals:         0       0       5       0       0       0       0       0       0
   776 ;;Total ram usage:        5 bytes
   777 ;; Hardware stack levels required when called: 10
   778 ;; This function calls:
   779 ;;		_Envia_text
   780 ;;		_config
   781 ;; This function is called by:
   782 ;;		Startup code after reset
   783 ;; This function uses a non-reentrant model
   784 ;;
   785                           
   786                           	psect	text0
   787   001CA0                     __ptext0:
   788                           	callstack 0
   789   001CA0                     _main:
   790                           	callstack 21
   791   001CA0                     
   792                           ;main.c: 193:     config();
   793   001CA0  EC58  F00D         	call	_config	;wreg free
   794   001CA4                     
   795                           ;main.c: 194:     LATA=0;
   796   001CA4  0E00               	movlw	0
   797   001CA6  6E89               	movwf	137,c	;volatile
   798   001CA8                     
   799                           ;main.c: 195:     contador=0;
   800   001CA8  0E00               	movlw	0
   801   001CAA  0101               	movlb	1	; () banked
   802   001CAC  6F51               	movwf	(_contador+1)& (0+255),b
   803   001CAE  0E00               	movlw	0
   804   001CB0  6F50               	movwf	_contador& (0+255),b
   805   001CB2                     
   806                           ; BSR set to: 1
   807                           ;main.c: 196:     cuenta=0;
   808   001CB2  0E00               	movlw	0
   809   001CB4  6F52               	movwf	_cuenta& (0+255),b
   810   001CB6                     
   811                           ; BSR set to: 1
   812                           ;main.c: 197:     tiempo=100;
   813   001CB6  0E00               	movlw	0
   814   001CB8  0100               	movlb	0	; () banked
   815   001CBA  6FEE               	movwf	(_tiempo+1)& (0+255),b
   816   001CBC  0E64               	movlw	100
   817   001CBE  6FED               	movwf	_tiempo& (0+255),b
   818   001CC0                     
   819                           ; BSR set to: 0
   820                           ;main.c: 198:     acumulador=0;
   821   001CC0  0E00               	movlw	0
   822   001CC2  6E5D               	movwf	(_acumulador+1)^0,c
   823   001CC4  0E00               	movlw	0
   824   001CC6  6E5C               	movwf	_acumulador^0,c
   825   001CC8                     
   826                           ; BSR set to: 0
   827                           ;main.c: 199:     carac_rx=0;
   828   001CC8  0E00               	movlw	0
   829   001CCA  6E5B               	movwf	(_carac_rx+1)^0,c
   830   001CCC  0E00               	movlw	0
   831   001CCE  6E5A               	movwf	_carac_rx^0,c
   832   001CD0                     
   833                           ; BSR set to: 0
   834                           ;main.c: 200:     Envia_text(listo,19);
   835   001CD0  0E1B               	movlw	low _listo
   836   001CD2  0101               	movlb	1	; () banked
   837   001CD4  6F5E               	movwf	Envia_text@texto& (0+255),b
   838   001CD6  0E01               	movlw	high _listo
   839   001CD8  6F5F               	movwf	(Envia_text@texto+1)& (0+255),b
   840   001CDA  0E00               	movlw	0
   841   001CDC  6F61               	movwf	(Envia_text@num_let+1)& (0+255),b
   842   001CDE  0E13               	movlw	19
   843   001CE0  6F60               	movwf	Envia_text@num_let& (0+255),b
   844   001CE2  ECFE  F00D         	call	_Envia_text	;wreg free
   845   001CE6                     l105:
   846   001CE6  EF73  F00E         	goto	l105
   847   001CEA  EF58  F008         	goto	start
   848   001CEE                     __end_of_main:
   849                           	callstack 0
   850                           
   851 ;; *************** function _config *****************
   852 ;; Defined at:
   853 ;;		line 14 in file "config.c"
   854 ;; Parameters:    Size  Location     Type
   855 ;;		None
   856 ;; Auto vars:     Size  Location     Type
   857 ;;		None
   858 ;; Return value:  Size  Location     Type
   859 ;;                  1    wreg      void 
   860 ;; Registers used:
   861 ;;		wreg, status,2
   862 ;; Tracked objects:
   863 ;;		On entry : 0/0
   864 ;;		On exit  : 0/0
   865 ;;		Unchanged: 0/0
   866 ;; Data sizes:     COMRAM   BANK0   BANK1   BANK2   BANK3   BANK4   BANK5   BANK6   BANK7
   867 ;;      Params:         0       0       0       0       0       0       0       0       0
   868 ;;      Locals:         0       0       0       0       0       0       0       0       0
   869 ;;      Temps:          0       0       0       0       0       0       0       0       0
   870 ;;      Totals:         0       0       0       0       0       0       0       0       0
   871 ;;Total ram usage:        0 bytes
   872 ;; Hardware stack levels used: 1
   873 ;; Hardware stack levels required when called: 9
   874 ;; This function calls:
   875 ;;		Nothing
   876 ;; This function is called by:
   877 ;;		_main
   878 ;; This function uses a non-reentrant model
   879 ;;
   880                           
   881                           	psect	text1
   882   001AB0                     __ptext1:
   883                           	callstack 0
   884   001AB0                     _config:
   885                           	callstack 21
   886   001AB0                     
   887                           ;config.c: 18:         OSCCON=0x70;
   888   001AB0  0E70               	movlw	112
   889   001AB2  6ED3               	movwf	211,c	;volatile
   890                           
   891                           ;config.c: 20:   OSCCON2=0x10;
   892   001AB4  0E10               	movlw	16
   893   001AB6  6ED2               	movwf	210,c	;volatile
   894                           
   895                           ;config.c: 21:   OSCTUNE=0x80;
   896   001AB8  0E80               	movlw	128
   897   001ABA  6E9B               	movwf	155,c	;volatile
   898                           
   899                           ;config.c: 27:     TRISA=0x00;
   900   001ABC  0E00               	movlw	0
   901   001ABE  6E92               	movwf	146,c	;volatile
   902                           
   903                           ;config.c: 28:     TRISB=0x03;
   904   001AC0  0E03               	movlw	3
   905   001AC2  6E93               	movwf	147,c	;volatile
   906                           
   907                           ;config.c: 29:     TRISC=0xBC;
   908   001AC4  0EBC               	movlw	188
   909   001AC6  6E94               	movwf	148,c	;volatile
   910                           
   911                           ;config.c: 30:     TRISD=0x0F;
   912   001AC8  0E0F               	movlw	15
   913   001ACA  6E95               	movwf	149,c	;volatile
   914                           
   915                           ;config.c: 31:     TRISE=0x00;
   916   001ACC  0E00               	movlw	0
   917   001ACE  6E96               	movwf	150,c	;volatile
   918                           
   919                           ;config.c: 33:     ANSELA=0x00;
   920   001AD0  0E00               	movlw	0
   921   001AD2  010F               	movlb	15	; () banked
   922   001AD4  6F5B               	movwf	91,b	;volatile
   923                           
   924                           ;config.c: 34:     ANSELB=0x00;
   925   001AD6  0E00               	movlw	0
   926   001AD8  6F5C               	movwf	92,b	;volatile
   927                           
   928                           ;config.c: 35:     ANSELC=0x00;
   929   001ADA  0E00               	movlw	0
   930   001ADC  6F5D               	movwf	93,b	;volatile
   931                           
   932                           ;config.c: 36:     ANSELD=0x00;
   933   001ADE  0E00               	movlw	0
   934   001AE0  6F5E               	movwf	94,b	;volatile
   935                           
   936                           ;config.c: 37:     ANSELE=0x00;
   937   001AE2  0E00               	movlw	0
   938   001AE4  6F5F               	movwf	95,b	;volatile
   939                           
   940                           ;config.c: 42:     INTCON=0;
   941   001AE6  0E00               	movlw	0
   942   001AE8  6EF2               	movwf	242,c	;volatile
   943   001AEA                     
   944                           ; BSR set to: 15
   945                           ;config.c: 43:     RCONbits.IPEN=1;
   946   001AEA  8ED0               	bsf	208,7,c	;volatile
   947   001AEC                     
   948                           ; BSR set to: 15
   949                           ;config.c: 44:     INTCONbits.INT0E=1;
   950   001AEC  88F2               	bsf	242,4,c	;volatile
   951   001AEE                     
   952                           ; BSR set to: 15
   953                           ;config.c: 45:     INTCON2bits.INTEDG0=0;
   954   001AEE  9CF1               	bcf	241,6,c	;volatile
   955   001AF0                     
   956                           ; BSR set to: 15
   957                           ;config.c: 46:     INTCONbits.GIEH=1;
   958   001AF0  8EF2               	bsf	242,7,c	;volatile
   959   001AF2                     
   960                           ; BSR set to: 15
   961                           ;config.c: 47:     INTCONbits.GIEL=1;
   962   001AF2  8CF2               	bsf	242,6,c	;volatile
   963   001AF4                     
   964                           ; BSR set to: 15
   965                           ;config.c: 48:     INTCONbits.T0IE=1;
   966   001AF4  8AF2               	bsf	242,5,c	;volatile
   967   001AF6                     
   968                           ; BSR set to: 15
   969                           ;config.c: 49:     INTCON2bits.T0IP=0;
   970   001AF6  94F1               	bcf	241,2,c	;volatile
   971   001AF8                     
   972                           ; BSR set to: 15
   973                           ;config.c: 55:     T0CONbits.T08BIT=0;
   974   001AF8  9CD5               	bcf	213,6,c	;volatile
   975   001AFA                     
   976                           ; BSR set to: 15
   977                           ;config.c: 56:     T0CONbits.T0CS=0;
   978   001AFA  9AD5               	bcf	213,5,c	;volatile
   979   001AFC                     
   980                           ; BSR set to: 15
   981                           ;config.c: 57:     T0CONbits.PSA=0;
   982   001AFC  96D5               	bcf	213,3,c	;volatile
   983                           
   984                           ;config.c: 58:     T0CONbits.T0PS=0;
   985   001AFE  0EF8               	movlw	-8
   986   001B00  16D5               	andwf	213,f,c	;volatile
   987                           
   988                           ;config.c: 62:     TMR0H=0xA2;;
   989   001B02  0EA2               	movlw	162
   990   001B04  6ED7               	movwf	215,c	;volatile
   991                           
   992                           ;config.c: 63:     TMR0L=0x3f;;
   993   001B06  0E3F               	movlw	63
   994   001B08  6ED6               	movwf	214,c	;volatile
   995                           
   996                           ;config.c: 67:     SPBRG1 = 0x4d;
   997   001B0A  0E4D               	movlw	77
   998   001B0C  6EAF               	movwf	175,c	;volatile
   999                           
  1000                           ;config.c: 68:     SPBRGH1 = 0;
  1001   001B0E  0E00               	movlw	0
  1002   001B10  6EB0               	movwf	176,c	;volatile
  1003   001B12                     
  1004                           ; BSR set to: 15
  1005                           ;config.c: 69:     TXSTA1bits.BRGH=0;
  1006   001B12  94AC               	bcf	172,2,c	;volatile
  1007   001B14                     
  1008                           ; BSR set to: 15
  1009                           ;config.c: 70:     TXSTA1bits.TX9=0;
  1010   001B14  9CAC               	bcf	172,6,c	;volatile
  1011   001B16                     
  1012                           ; BSR set to: 15
  1013                           ;config.c: 71:     TXSTA1bits.TXEN=1;
  1014   001B16  8AAC               	bsf	172,5,c	;volatile
  1015   001B18                     
  1016                           ; BSR set to: 15
  1017                           ;config.c: 72:     TXSTA1bits.SYNC=0;
  1018   001B18  98AC               	bcf	172,4,c	;volatile
  1019   001B1A                     
  1020                           ; BSR set to: 15
  1021                           ;config.c: 73:     RCSTA1bits.RX9=0;
  1022   001B1A  9CAB               	bcf	171,6,c	;volatile
  1023   001B1C                     
  1024                           ; BSR set to: 15
  1025                           ;config.c: 74:     RCSTA1bits.CREN=1;
  1026   001B1C  88AB               	bsf	171,4,c	;volatile
  1027                           
  1028                           ;config.c: 75:     BAUDCON1=0x40;
  1029   001B1E  0E40               	movlw	64
  1030   001B20  6EB8               	movwf	184,c	;volatile
  1031   001B22                     
  1032                           ; BSR set to: 15
  1033                           ;config.c: 76:     RCSTA1bits.SPEN=1;
  1034   001B22  8EAB               	bsf	171,7,c	;volatile
  1035   001B24                     
  1036                           ; BSR set to: 15
  1037   001B24  0012               	return		;funcret
  1038   001B26                     __end_of_config:
  1039                           	callstack 0
  1040                           
  1041 ;; *************** function _Envia_text *****************
  1042 ;; Defined at:
  1043 ;;		line 212 in file "main.c"
  1044 ;; Parameters:    Size  Location     Type
  1045 ;;  texto           2   11[BANK1 ] PTR unsigned char 
  1046 ;;		 -> listo(19), error(5), 
  1047 ;;  num_let         2   13[BANK1 ] int 
  1048 ;; Auto vars:     Size  Location     Type
  1049 ;;  i               2   16[BANK1 ] int 
  1050 ;; Return value:  Size  Location     Type
  1051 ;;                  1    wreg      void 
  1052 ;; Registers used:
  1053 ;;		wreg, fsr2l, fsr2h, status,2, status,0
  1054 ;; Tracked objects:
  1055 ;;		On entry : 0/0
  1056 ;;		On exit  : 0/0
  1057 ;;		Unchanged: 0/0
  1058 ;; Data sizes:     COMRAM   BANK0   BANK1   BANK2   BANK3   BANK4   BANK5   BANK6   BANK7
  1059 ;;      Params:         0       0       4       0       0       0       0       0       0
  1060 ;;      Locals:         0       0       2       0       0       0       0       0       0
  1061 ;;      Temps:          0       0       1       0       0       0       0       0       0
  1062 ;;      Totals:         0       0       7       0       0       0       0       0       0
  1063 ;;Total ram usage:        7 bytes
  1064 ;; Hardware stack levels used: 1
  1065 ;; Hardware stack levels required when called: 9
  1066 ;; This function calls:
  1067 ;;		Nothing
  1068 ;; This function is called by:
  1069 ;;		_main
  1070 ;; This function uses a non-reentrant model
  1071 ;;
  1072                           
  1073                           	psect	text2
  1074   001BFC                     __ptext2:
  1075                           	callstack 0
  1076   001BFC                     _Envia_text:
  1077                           	callstack 21
  1078   001BFC                     
  1079                           ;main.c: 212: void Envia_text (char *texto, int num_let);main.c: 213: {;main.c: 214:    
      +                           for (int i=0;i<num_let;i++)
  1080   001BFC  0E00               	movlw	0
  1081   001BFE  0101               	movlb	1	; () banked
  1082   001C00  6F64               	movwf	(Envia_text@i+1)& (0+255),b
  1083   001C02  0E00               	movlw	0
  1084   001C04  6F63               	movwf	Envia_text@i& (0+255),b
  1085   001C06  EF18  F00E         	goto	l1969
  1086   001C0A                     l1963:
  1087                           
  1088                           ; BSR set to: 1
  1089                           ;main.c: 215:                       {;main.c: 216:                         TXREG1=texto[
      +                          i];
  1090   001C0A  5163               	movf	Envia_text@i& (0+255),w,b
  1091   001C0C  255E               	addwf	Envia_text@texto& (0+255),w,b
  1092   001C0E  6ED9               	movwf	fsr2l,c
  1093   001C10  5164               	movf	(Envia_text@i+1)& (0+255),w,b
  1094   001C12  215F               	addwfc	(Envia_text@texto+1)& (0+255),w,b
  1095   001C14  6EDA               	movwf	fsr2h,c
  1096   001C16  50DF               	movf	indf2,w,c
  1097   001C18  6EAD               	movwf	173,c	;volatile
  1098   001C1A                     
  1099                           ; BSR set to: 1
  1100                           ;main.c: 217:                         PIR1bits.TXIF=0;
  1101   001C1A  989E               	bcf	158,4,c	;volatile
  1102   001C1C                     l113:
  1103   001C1C  A89E               	btfss	158,4,c	;volatile
  1104   001C1E  EF13  F00E         	goto	u1551
  1105   001C22  EF15  F00E         	goto	u1550
  1106   001C26                     u1551:
  1107   001C26  EF0E  F00E         	goto	l113
  1108   001C2A                     u1550:
  1109   001C2A                     
  1110                           ;main.c: 219:                       }
  1111   001C2A  0101               	movlb	1	; () banked
  1112   001C2C  4B63               	infsnz	Envia_text@i& (0+255),f,b
  1113   001C2E  2B64               	incf	(Envia_text@i+1)& (0+255),f,b
  1114   001C30                     l1969:
  1115                           
  1116                           ; BSR set to: 1
  1117   001C30  5160               	movf	Envia_text@num_let& (0+255),w,b
  1118   001C32  5D63               	subwf	Envia_text@i& (0+255),w,b
  1119   001C34  5164               	movf	(Envia_text@i+1)& (0+255),w,b
  1120   001C36  0A80               	xorlw	128
  1121   001C38  6F62               	movwf	??_Envia_text& (0+255),b
  1122   001C3A  5161               	movf	(Envia_text@num_let+1)& (0+255),w,b
  1123   001C3C  0A80               	xorlw	128
  1124   001C3E  5962               	subwfb	??_Envia_text& (0+255),w,b
  1125   001C40  A0D8               	btfss	status,0,c
  1126   001C42  EF25  F00E         	goto	u1561
  1127   001C46  EF27  F00E         	goto	u1560
  1128   001C4A                     u1561:
  1129   001C4A  EF05  F00E         	goto	l1963
  1130   001C4E                     u1560:
  1131   001C4E                     
  1132                           ; BSR set to: 1
  1133   001C4E  0012               	return		;funcret
  1134   001C50                     __end_of_Envia_text:
  1135                           	callstack 0
  1136                           
  1137 ;; *************** function _lint *****************
  1138 ;; Defined at:
  1139 ;;		line 164 in file "main.c"
  1140 ;; Parameters:    Size  Location     Type
  1141 ;;		None
  1142 ;; Auto vars:     Size  Location     Type
  1143 ;;		None
  1144 ;; Return value:  Size  Location     Type
  1145 ;;                  1    wreg      void 
  1146 ;; Registers used:
  1147 ;;		wreg, status,2, status,0, cstack
  1148 ;; Tracked objects:
  1149 ;;		On entry : 0/0
  1150 ;;		On exit  : 0/0
  1151 ;;		Unchanged: 0/0
  1152 ;; Data sizes:     COMRAM   BANK0   BANK1   BANK2   BANK3   BANK4   BANK5   BANK6   BANK7
  1153 ;;      Params:         0       0       0       0       0       0       0       0       0
  1154 ;;      Locals:         0       0       0       0       0       0       0       0       0
  1155 ;;      Temps:          0       0       3       0       0       0       0       0       0
  1156 ;;      Totals:         0       0       3       0       0       0       0       0       0
  1157 ;;Total ram usage:        3 bytes
  1158 ;; Hardware stack levels used: 1
  1159 ;; Hardware stack levels required when called: 8
  1160 ;; This function calls:
  1161 ;;		___awdiv
  1162 ;; This function is called by:
  1163 ;;		Interrupt level 1
  1164 ;; This function uses a non-reentrant model
  1165 ;;
  1166                           
  1167                           	psect	intcodelo
  1168   001018                     __pintcodelo:
  1169                           	callstack 0
  1170   001018                     _lint:
  1171                           	callstack 21
  1172                           
  1173                           ; BSR set to: 1
  1174                           ;incstack = 0
  1175   001018  805F               	bsf	int$flags,0,c	;set compiler interrupt flag (level 1)
  1176   00101A  CFD8 F15B          	movff	status,??_lint
  1177   00101E  CFE8 F15C          	movff	wreg,??_lint+1
  1178   001022  CFE0 F15D          	movff	bsr,??_lint+2
  1179   001026                     
  1180                           ;main.c: 167:         if(INTCONbits.TMR0IF){
  1181   001026  A4F2               	btfss	242,2,c	;volatile
  1182   001028  EF18  F008         	goto	i1u152_21
  1183   00102C  EF1A  F008         	goto	i1u152_20
  1184   001030                     i1u152_21:
  1185   001030  EF50  F008         	goto	i1l100
  1186   001034                     i1u152_20:
  1187   001034                     
  1188                           ;main.c: 169:             TMR0H=0xA2;;
  1189   001034  0EA2               	movlw	162
  1190   001036  6ED7               	movwf	215,c	;volatile
  1191                           
  1192                           ;main.c: 170:             TMR0L=0x3f;;
  1193   001038  0E3F               	movlw	63
  1194   00103A  6ED6               	movwf	214,c	;volatile
  1195   00103C                     
  1196                           ;main.c: 173:         num_int = tiempo/5;
  1197   00103C  C0ED  F153         	movff	_tiempo,___awdiv@dividend
  1198   001040  C0EE  F154         	movff	_tiempo+1,___awdiv@dividend+1
  1199   001044  0E00               	movlw	0
  1200   001046  0101               	movlb	1	; () banked
  1201   001048  6F56               	movwf	(___awdiv@divisor+1)& (0+255),b
  1202   00104A  0E05               	movlw	5
  1203   00104C  6F55               	movwf	___awdiv@divisor& (0+255),b
  1204   00104E  EC8F  F00B         	call	___awdiv	;wreg free
  1205   001052  C153  F14E         	movff	?___awdiv,_num_int
  1206   001056  C154  F14F         	movff	?___awdiv+1,_num_int+1
  1207   00105A                     
  1208                           ;main.c: 175:         if(contador==num_int)
  1209   00105A  0101               	movlb	1	; () banked
  1210   00105C  514E               	movf	_num_int& (0+255),w,b
  1211   00105E  1950               	xorwf	_contador& (0+255),w,b
  1212   001060  E107               	bnz	i1u153_21
  1213   001062  514F               	movf	(_num_int+1)& (0+255),w,b
  1214   001064  1951               	xorwf	(_contador+1)& (0+255),w,b
  1215   001066  A4D8               	btfss	status,2,c
  1216   001068  EF38  F008         	goto	i1u153_21
  1217   00106C  EF3A  F008         	goto	i1u153_20
  1218   001070                     i1u153_21:
  1219   001070  EF4C  F008         	goto	i1l1937
  1220   001074                     i1u153_20:
  1221   001074                     
  1222                           ; BSR set to: 1
  1223                           ;main.c: 176:         {;main.c: 177:             cuenta++;
  1224   001074  2B52               	incf	_cuenta& (0+255),f,b
  1225   001076                     
  1226                           ; BSR set to: 1
  1227                           ;main.c: 178:             if (cuenta==16) cuenta=0;
  1228   001076  0E10               	movlw	16
  1229   001078  1952               	xorwf	_cuenta& (0+255),w,b
  1230   00107A  A4D8               	btfss	status,2,c
  1231   00107C  EF42  F008         	goto	i1u154_21
  1232   001080  EF44  F008         	goto	i1u154_20
  1233   001084                     i1u154_21:
  1234   001084  EF46  F008         	goto	i1l1935
  1235   001088                     i1u154_20:
  1236   001088                     
  1237                           ; BSR set to: 1
  1238   001088  0E00               	movlw	0
  1239   00108A  6F52               	movwf	_cuenta& (0+255),b
  1240   00108C                     i1l1935:
  1241                           
  1242                           ; BSR set to: 1
  1243                           ;main.c: 179:             LATA=cuenta;
  1244   00108C  C152  FF89         	movff	_cuenta,3977	;volatile
  1245                           
  1246                           ;main.c: 180:             contador=0;
  1247   001090  0E00               	movlw	0
  1248   001092  6F51               	movwf	(_contador+1)& (0+255),b
  1249   001094  0E00               	movlw	0
  1250   001096  6F50               	movwf	_contador& (0+255),b
  1251   001098                     i1l1937:
  1252                           
  1253                           ; BSR set to: 1
  1254                           ;main.c: 183:         contador++;
  1255   001098  4B50               	infsnz	_contador& (0+255),f,b
  1256   00109A  2B51               	incf	(_contador+1)& (0+255),f,b
  1257   00109C                     
  1258                           ; BSR set to: 1
  1259                           ;main.c: 184:         INTCONbits.TMR0IF=0;
  1260   00109C  94F2               	bcf	242,2,c	;volatile
  1261   00109E                     
  1262                           ; BSR set to: 1
  1263                           ;main.c: 185:         T0CONbits.TMR0ON = 1;
  1264   00109E  8ED5               	bsf	213,7,c	;volatile
  1265   0010A0                     i1l100:
  1266   0010A0  C15D  FFE0         	movff	??_lint+2,bsr
  1267   0010A4  C15C  FFE8         	movff	??_lint+1,wreg
  1268   0010A8  C15B  FFD8         	movff	??_lint,status
  1269   0010AC  905F               	bcf	int$flags,0,c	;clear compiler interrupt flag (level 1)
  1270   0010AE  0010               	retfie	
  1271   0010B0                     __end_of_lint:
  1272                           	callstack 0
  1273                           
  1274 ;; *************** function ___awdiv *****************
  1275 ;; Defined at:
  1276 ;;		line 7 in file "C:\Program Files\Microchip\xc8\v2.46\pic\sources\c99\common\awdiv.c"
  1277 ;; Parameters:    Size  Location     Type
  1278 ;;  dividend        2    0[BANK1 ] int 
  1279 ;;  divisor         2    2[BANK1 ] int 
  1280 ;; Auto vars:     Size  Location     Type
  1281 ;;  quotient        2    6[BANK1 ] int 
  1282 ;;  sign            1    5[BANK1 ] unsigned char 
  1283 ;;  counter         1    4[BANK1 ] unsigned char 
  1284 ;; Return value:  Size  Location     Type
  1285 ;;                  2    0[BANK1 ] int 
  1286 ;; Registers used:
  1287 ;;		wreg, status,2, status,0
  1288 ;; Tracked objects:
  1289 ;;		On entry : 0/0
  1290 ;;		On exit  : 0/0
  1291 ;;		Unchanged: 0/0
  1292 ;; Data sizes:     COMRAM   BANK0   BANK1   BANK2   BANK3   BANK4   BANK5   BANK6   BANK7
  1293 ;;      Params:         0       0       4       0       0       0       0       0       0
  1294 ;;      Locals:         0       0       4       0       0       0       0       0       0
  1295 ;;      Temps:          0       0       0       0       0       0       0       0       0
  1296 ;;      Totals:         0       0       8       0       0       0       0       0       0
  1297 ;;Total ram usage:        8 bytes
  1298 ;; Hardware stack levels used: 1
  1299 ;; Hardware stack levels required when called: 7
  1300 ;; This function calls:
  1301 ;;		Nothing
  1302 ;; This function is called by:
  1303 ;;		_lint
  1304 ;; This function uses a non-reentrant model
  1305 ;;
  1306                           
  1307                           	psect	text4
  1308   00171E                     __ptext4:
  1309                           	callstack 0
  1310   00171E                     ___awdiv:
  1311                           	callstack 21
  1312   00171E  0E00               	movlw	0
  1313   001720  0101               	movlb	1	; () banked
  1314   001722  6F58               	movwf	___awdiv@sign& (0+255),b
  1315   001724                     
  1316                           ; BSR set to: 1
  1317   001724  BF56               	btfsc	(___awdiv@divisor+1)& (0+255),7,b
  1318   001726  EF99  F00B         	goto	i1u122_20
  1319   00172A  EF97  F00B         	goto	i1u122_21
  1320   00172E                     i1u122_21:
  1321   00172E  EF9F  F00B         	goto	i1l1765
  1322   001732                     i1u122_20:
  1323   001732                     
  1324                           ; BSR set to: 1
  1325   001732  6D55               	negf	___awdiv@divisor& (0+255),b
  1326   001734  1F56               	comf	(___awdiv@divisor+1)& (0+255),f,b
  1327   001736  B0D8               	btfsc	status,0,c
  1328   001738  2B56               	incf	(___awdiv@divisor+1)& (0+255),f,b
  1329   00173A                     
  1330                           ; BSR set to: 1
  1331   00173A  0E01               	movlw	1
  1332   00173C  6F58               	movwf	___awdiv@sign& (0+255),b
  1333   00173E                     i1l1765:
  1334                           
  1335                           ; BSR set to: 1
  1336   00173E  BF54               	btfsc	(___awdiv@dividend+1)& (0+255),7,b
  1337   001740  EFA6  F00B         	goto	i1u123_20
  1338   001744  EFA4  F00B         	goto	i1u123_21
  1339   001748                     i1u123_21:
  1340   001748  EFAC  F00B         	goto	i1l1771
  1341   00174C                     i1u123_20:
  1342   00174C                     
  1343                           ; BSR set to: 1
  1344   00174C  6D53               	negf	___awdiv@dividend& (0+255),b
  1345   00174E  1F54               	comf	(___awdiv@dividend+1)& (0+255),f,b
  1346   001750  B0D8               	btfsc	status,0,c
  1347   001752  2B54               	incf	(___awdiv@dividend+1)& (0+255),f,b
  1348   001754                     
  1349                           ; BSR set to: 1
  1350   001754  0E01               	movlw	1
  1351   001756  1B58               	xorwf	___awdiv@sign& (0+255),f,b
  1352   001758                     i1l1771:
  1353                           
  1354                           ; BSR set to: 1
  1355   001758  0E00               	movlw	0
  1356   00175A  6F5A               	movwf	(___awdiv@quotient+1)& (0+255),b
  1357   00175C  0E00               	movlw	0
  1358   00175E  6F59               	movwf	___awdiv@quotient& (0+255),b
  1359   001760                     
  1360                           ; BSR set to: 1
  1361   001760  5155               	movf	___awdiv@divisor& (0+255),w,b
  1362   001762  1156               	iorwf	(___awdiv@divisor+1)& (0+255),w,b
  1363   001764  B4D8               	btfsc	status,2,c
  1364   001766  EFB7  F00B         	goto	i1u124_21
  1365   00176A  EFB9  F00B         	goto	i1u124_20
  1366   00176E                     i1u124_21:
  1367   00176E  EFE1  F00B         	goto	i1l1793
  1368   001772                     i1u124_20:
  1369   001772                     
  1370                           ; BSR set to: 1
  1371   001772  0E01               	movlw	1
  1372   001774  6F57               	movwf	___awdiv@counter& (0+255),b
  1373   001776  EFC1  F00B         	goto	i1l1779
  1374   00177A                     i1l1777:
  1375                           
  1376                           ; BSR set to: 1
  1377   00177A  90D8               	bcf	status,0,c
  1378   00177C  3755               	rlcf	___awdiv@divisor& (0+255),f,b
  1379   00177E  3756               	rlcf	(___awdiv@divisor+1)& (0+255),f,b
  1380   001780  2B57               	incf	___awdiv@counter& (0+255),f,b
  1381   001782                     i1l1779:
  1382                           
  1383                           ; BSR set to: 1
  1384   001782  AF56               	btfss	(___awdiv@divisor+1)& (0+255),7,b
  1385   001784  EFC6  F00B         	goto	i1u125_21
  1386   001788  EFC8  F00B         	goto	i1u125_20
  1387   00178C                     i1u125_21:
  1388   00178C  EFBD  F00B         	goto	i1l1777
  1389   001790                     i1u125_20:
  1390   001790                     i1l1781:
  1391                           
  1392                           ; BSR set to: 1
  1393   001790  90D8               	bcf	status,0,c
  1394   001792  3759               	rlcf	___awdiv@quotient& (0+255),f,b
  1395   001794  375A               	rlcf	(___awdiv@quotient+1)& (0+255),f,b
  1396   001796                     
  1397                           ; BSR set to: 1
  1398   001796  5155               	movf	___awdiv@divisor& (0+255),w,b
  1399   001798  5D53               	subwf	___awdiv@dividend& (0+255),w,b
  1400   00179A  5156               	movf	(___awdiv@divisor+1)& (0+255),w,b
  1401   00179C  5954               	subwfb	(___awdiv@dividend+1)& (0+255),w,b
  1402   00179E  A0D8               	btfss	status,0,c
  1403   0017A0  EFD4  F00B         	goto	i1u126_21
  1404   0017A4  EFD6  F00B         	goto	i1u126_20
  1405   0017A8                     i1u126_21:
  1406   0017A8  EFDB  F00B         	goto	i1l1789
  1407   0017AC                     i1u126_20:
  1408   0017AC                     
  1409                           ; BSR set to: 1
  1410   0017AC  5155               	movf	___awdiv@divisor& (0+255),w,b
  1411   0017AE  5F53               	subwf	___awdiv@dividend& (0+255),f,b
  1412   0017B0  5156               	movf	(___awdiv@divisor+1)& (0+255),w,b
  1413   0017B2  5B54               	subwfb	(___awdiv@dividend+1)& (0+255),f,b
  1414   0017B4                     
  1415                           ; BSR set to: 1
  1416   0017B4  8159               	bsf	___awdiv@quotient& (0+255),0,b
  1417   0017B6                     i1l1789:
  1418                           
  1419                           ; BSR set to: 1
  1420   0017B6  90D8               	bcf	status,0,c
  1421   0017B8  3356               	rrcf	(___awdiv@divisor+1)& (0+255),f,b
  1422   0017BA  3355               	rrcf	___awdiv@divisor& (0+255),f,b
  1423   0017BC                     
  1424                           ; BSR set to: 1
  1425   0017BC  2F57               	decfsz	___awdiv@counter& (0+255),f,b
  1426   0017BE  EFC8  F00B         	goto	i1l1781
  1427   0017C2                     i1l1793:
  1428                           
  1429                           ; BSR set to: 1
  1430   0017C2  5158               	movf	___awdiv@sign& (0+255),w,b
  1431   0017C4  B4D8               	btfsc	status,2,c
  1432   0017C6  EFE7  F00B         	goto	i1u127_21
  1433   0017CA  EFE9  F00B         	goto	i1u127_20
  1434   0017CE                     i1u127_21:
  1435   0017CE  EFED  F00B         	goto	i1l1797
  1436   0017D2                     i1u127_20:
  1437   0017D2                     
  1438                           ; BSR set to: 1
  1439   0017D2  6D59               	negf	___awdiv@quotient& (0+255),b
  1440   0017D4  1F5A               	comf	(___awdiv@quotient+1)& (0+255),f,b
  1441   0017D6  B0D8               	btfsc	status,0,c
  1442   0017D8  2B5A               	incf	(___awdiv@quotient+1)& (0+255),f,b
  1443   0017DA                     i1l1797:
  1444                           
  1445                           ; BSR set to: 1
  1446   0017DA  C159  F153         	movff	___awdiv@quotient,?___awdiv
  1447   0017DE  C15A  F154         	movff	___awdiv@quotient+1,?___awdiv+1
  1448   0017E2                     
  1449                           ; BSR set to: 1
  1450   0017E2  0012               	return		;funcret
  1451   0017E4                     __end_of___awdiv:
  1452                           	callstack 0
  1453                           
  1454 ;; *************** function _hint *****************
  1455 ;; Defined at:
  1456 ;;		line 45 in file "main.c"
  1457 ;; Parameters:    Size  Location     Type
  1458 ;;		None
  1459 ;; Auto vars:     Size  Location     Type
  1460 ;;  texto5          1   82[COMRAM] PTR unsigned char 
  1461 ;;		 -> STR_6(16), 
  1462 ;;  texto6          1   83[COMRAM] PTR unsigned char 
  1463 ;;		 -> STR_7(7), 
  1464 ;;  numero          2   76[COMRAM] int 
  1465 ;;  texto4          1   81[COMRAM] PTR unsigned char 
  1466 ;;		 -> STR_5(7), 
  1467 ;;  texto3          1   80[COMRAM] PTR unsigned char 
  1468 ;;		 -> STR_4(7), 
  1469 ;;  texto2          1   79[COMRAM] PTR unsigned char 
  1470 ;;		 -> STR_3(7), 
  1471 ;;  numero          2   74[COMRAM] int 
  1472 ;;  textot          1   78[COMRAM] PTR unsigned char 
  1473 ;;		 -> STR_2(16), 
  1474 ;;  texto1          1    0        PTR unsigned char 
  1475 ;;		 -> STR_1(7), 
  1476 ;;  rx_buf          1   84[COMRAM] unsigned char 
  1477 ;; Return value:  Size  Location     Type
  1478 ;;                  1    wreg      void 
  1479 ;; Registers used:
  1480 ;;		wreg, fsr1l, fsr1h, fsr2l, fsr2h, status,2, status,0, tblptrl, tblptrh, tblptru, prodl, prodh, cstack
  1481 ;; Tracked objects:
  1482 ;;		On entry : 0/0
  1483 ;;		On exit  : 0/0
  1484 ;;		Unchanged: 0/0
  1485 ;; Data sizes:     COMRAM   BANK0   BANK1   BANK2   BANK3   BANK4   BANK5   BANK6   BANK7
  1486 ;;      Params:         0       0       0       0       0       0       0       0       0
  1487 ;;      Locals:        11       0       0       0       0       0       0       0       0
  1488 ;;      Temps:         11       0       0       0       0       0       0       0       0
  1489 ;;      Totals:        22       0       0       0       0       0       0       0       0
  1490 ;;Total ram usage:       22 bytes
  1491 ;; Hardware stack levels used: 1
  1492 ;; Hardware stack levels required when called: 6
  1493 ;; This function calls:
  1494 ;;		_Envia_cadena
  1495 ;;		_Envia_tiempo
  1496 ;;		___wmul
  1497 ;;		i2_Envia_text
  1498 ;; This function is called by:
  1499 ;;		Interrupt level 2
  1500 ;; This function uses a non-reentrant model
  1501 ;;
  1502                           
  1503                           	psect	intcode
  1504   001008                     __pintcode:
  1505                           	callstack 0
  1506   001008                     _hint:
  1507                           	callstack 21
  1508                           
  1509                           ; BSR set to: 1
  1510                           ;incstack = 0
  1511   001008  825F               	bsf	int$flags,1,c	;set compiler interrupt flag (level 2)
  1512   00100A  EF72  F008         	goto	int_func
  1513                           
  1514                           	psect	intcode_body
  1515   0010E4                     __pintcode_body:
  1516                           	callstack 21
  1517   0010E4                     int_func:
  1518                           	callstack 21
  1519   0010E4  CFE1 F041          	movff	fsr1l,??_hint+1
  1520   0010E8  CFE2 F042          	movff	fsr1h,??_hint+2
  1521   0010EC  CFD9 F043          	movff	fsr2l,??_hint+3
  1522   0010F0  CFDA F044          	movff	fsr2h,??_hint+4
  1523   0010F4  CFF3 F045          	movff	prodl,??_hint+5
  1524   0010F8  CFF4 F046          	movff	prodh,??_hint+6
  1525   0010FC  CFF6 F047          	movff	tblptrl,??_hint+7
  1526   001100  CFF7 F048          	movff	tblptrh,??_hint+8
  1527   001104  CFF8 F049          	movff	tblptru,??_hint+9
  1528   001108  CFF5 F04A          	movff	tablat,??_hint+10
  1529   00110C                     
  1530                           ;main.c: 48:     char rx_buf;;main.c: 52:     if(PIR1bits.RCIF){
  1531   00110C  AA9E               	btfss	158,5,c	;volatile
  1532   00110E  EF8B  F008         	goto	i2u159_41
  1533   001112  EF8D  F008         	goto	i2u159_40
  1534   001116                     i2u159_41:
  1535   001116  EFF0  F009         	goto	i2l92
  1536   00111A                     i2u159_40:
  1537   00111A                     
  1538                           ;main.c: 55:             rx_buf=RCREG1;
  1539   00111A  CFAE F055          	movff	4014,hint@rx_buf	;volatile
  1540                           
  1541                           ;main.c: 56:             if(RCSTA1bits.OERR){
  1542   00111E  A2AB               	btfss	171,1,c	;volatile
  1543   001120  EF94  F008         	goto	i2u160_41
  1544   001124  EF96  F008         	goto	i2u160_40
  1545   001128                     i2u160_41:
  1546   001128  EF98  F008         	goto	i2l1987
  1547   00112C                     i2u160_40:
  1548   00112C                     
  1549                           ;main.c: 57:                 RCSTAbits.CREN=0;
  1550   00112C  98AB               	bcf	171,4,c	;volatile
  1551                           
  1552                           ;main.c: 58:                 RCSTAbits.CREN=1;
  1553   00112E  88AB               	bsf	171,4,c	;volatile
  1554   001130                     i2l1987:
  1555                           
  1556                           ;main.c: 60:             carac_rx++;
  1557   001130  4A5A               	infsnz	_carac_rx^0,f,c
  1558   001132  2A5B               	incf	(_carac_rx+1)^0,f,c
  1559   001134                     
  1560                           ;main.c: 62:             if (carac_rx<8)
  1561   001134  BE5B               	btfsc	(_carac_rx+1)^0,7,c
  1562   001136  EFA8  F008         	goto	i2u161_40
  1563   00113A  505B               	movf	(_carac_rx+1)^0,w,c
  1564   00113C  E107               	bnz	i2u161_41
  1565   00113E  0E08               	movlw	8
  1566   001140  5C5A               	subwf	_carac_rx^0,w,c
  1567   001142  B0D8               	btfsc	status,0,c
  1568   001144  EFA6  F008         	goto	i2u161_41
  1569   001148  EFA8  F008         	goto	i2u161_40
  1570   00114C                     i2u161_41:
  1571   00114C  EFD5  F008         	goto	i2l2003
  1572   001150                     i2u161_40:
  1573   001150                     
  1574                           ;main.c: 63:              {;main.c: 64:                 if ((rx_buf==(form_tiempo1[carac
      +                          _rx-1])) || (rx_buf==(form_tiempo2[carac_rx-1])) )
  1575   001150  505A               	movf	_carac_rx^0,w,c
  1576   001152  0FDD               	addlw	low (_form_tiempo1+255)
  1577   001154  6ED9               	movwf	fsr2l,c
  1578   001156  6ADA               	clrf	fsr2h,c
  1579   001158  5055               	movf	hint@rx_buf^0,w,c
  1580   00115A  18DE               	xorwf	postinc2,w,c
  1581   00115C  B4D8               	btfsc	status,2,c
  1582   00115E  EFB3  F008         	goto	i2u162_41
  1583   001162  EFB5  F008         	goto	i2u162_40
  1584   001166                     i2u162_41:
  1585   001166  EFC2  F008         	goto	i2l1995
  1586   00116A                     i2u162_40:
  1587   00116A  505A               	movf	_carac_rx^0,w,c
  1588   00116C  0FD6               	addlw	low (_form_tiempo2+255)
  1589   00116E  6ED9               	movwf	fsr2l,c
  1590   001170  6ADA               	clrf	fsr2h,c
  1591   001172  5055               	movf	hint@rx_buf^0,w,c
  1592   001174  18DE               	xorwf	postinc2,w,c
  1593   001176  A4D8               	btfss	status,2,c
  1594   001178  EFC0  F008         	goto	i2u163_41
  1595   00117C  EFC2  F008         	goto	i2u163_40
  1596   001180                     i2u163_41:
  1597   001180  EFC8  F008         	goto	i2l1997
  1598   001184                     i2u163_40:
  1599   001184                     i2l1995:
  1600                           
  1601                           ;main.c: 65:                  {;main.c: 66:                     acumulador=0;
  1602   001184  0E00               	movlw	0
  1603   001186  6E5D               	movwf	(_acumulador+1)^0,c
  1604   001188  0E00               	movlw	0
  1605   00118A  6E5C               	movwf	_acumulador^0,c
  1606                           
  1607                           ;main.c: 67:                  }
  1608   00118C  EFD5  F008         	goto	i2l2003
  1609   001190                     i2l1997:
  1610                           
  1611                           ;main.c: 69:                  {;main.c: 70:                     carac_rx=0;
  1612   001190  0E00               	movlw	0
  1613   001192  6E5B               	movwf	(_carac_rx+1)^0,c
  1614   001194  0E00               	movlw	0
  1615   001196  6E5A               	movwf	_carac_rx^0,c
  1616   001198                     
  1617                           ;main.c: 71:                     Envia_text(error,5);
  1618   001198  0EE8               	movlw	low _error
  1619   00119A  6E01               	movwf	i2Envia_text@texto^0,c
  1620   00119C  6A02               	clrf	(i2Envia_text@texto+1)^0,c
  1621   00119E  0E00               	movlw	0
  1622   0011A0  6E04               	movwf	(i2Envia_text@num_let+1)^0,c
  1623   0011A2  0E05               	movlw	5
  1624   0011A4  6E03               	movwf	i2Envia_text@num_let^0,c
  1625   0011A6  EC28  F00E         	call	i2_Envia_text	;wreg free
  1626   0011AA                     i2l2003:
  1627                           
  1628                           ;main.c: 78:             if (carac_rx==8)
  1629   0011AA  0E08               	movlw	8
  1630   0011AC  185A               	xorwf	_carac_rx^0,w,c
  1631   0011AE  105B               	iorwf	(_carac_rx+1)^0,w,c
  1632   0011B0  A4D8               	btfss	status,2,c
  1633   0011B2  EFDD  F008         	goto	i2u164_41
  1634   0011B6  EFDF  F008         	goto	i2u164_40
  1635   0011BA                     i2u164_41:
  1636   0011BA  EF2C  F009         	goto	i2l2029
  1637   0011BE                     i2u164_40:
  1638   0011BE                     
  1639                           ;main.c: 79:              {;main.c: 80:                 if (rx_buf ==63)
  1640   0011BE  0E3F               	movlw	63
  1641   0011C0  1855               	xorwf	hint@rx_buf^0,w,c
  1642   0011C2  A4D8               	btfss	status,2,c
  1643   0011C4  EFE6  F008         	goto	i2u165_41
  1644   0011C8  EFE8  F008         	goto	i2u165_40
  1645   0011CC                     i2u165_41:
  1646   0011CC  EFFA  F008         	goto	i2l2015
  1647   0011D0                     i2u165_40:
  1648   0011D0                     
  1649                           ;main.c: 81:                  {;main.c: 85:                     char* textot = " Tiempo 
      +                          actual ";
  1650   0011D0  0EB5               	movlw	low STR_2
  1651   0011D2  6E4F               	movwf	hint@textot^0,c
  1652   0011D4                     
  1653                           ;main.c: 86:                     Envia_cadena (textot);
  1654   0011D4  C04F  F02D         	movff	hint@textot,Envia_cadena@texto
  1655   0011D8  EC93  F00D         	call	_Envia_cadena	;wreg free
  1656   0011DC                     
  1657                           ;main.c: 87:                     Envia_tiempo (tiempo);
  1658   0011DC  C0ED  F02D         	movff	_tiempo,Envia_tiempo@tiempo
  1659   0011E0  C0EE  F02E         	movff	_tiempo+1,Envia_tiempo@tiempo+1
  1660   0011E4  ECAC  F00C         	call	_Envia_tiempo	;wreg free
  1661   0011E8                     
  1662                           ;main.c: 89:                     carac_rx=0;
  1663   0011E8  0E00               	movlw	0
  1664   0011EA  6E5B               	movwf	(_carac_rx+1)^0,c
  1665   0011EC  0E00               	movlw	0
  1666   0011EE  6E5A               	movwf	_carac_rx^0,c
  1667                           
  1668                           ;main.c: 90:                  }
  1669   0011F0  EF2C  F009         	goto	i2l2029
  1670   0011F4                     i2l2015:
  1671   0011F4  0E30               	movlw	48
  1672   0011F6  1855               	xorwf	hint@rx_buf^0,w,c
  1673   0011F8  B4D8               	btfsc	status,2,c
  1674   0011FA  EF01  F009         	goto	i2u166_41
  1675   0011FE  EF03  F009         	goto	i2u166_40
  1676   001202                     i2u166_41:
  1677   001202  EF0C  F009         	goto	i2l2019
  1678   001206                     i2u166_40:
  1679   001206  0E31               	movlw	49
  1680   001208  1855               	xorwf	hint@rx_buf^0,w,c
  1681   00120A  A4D8               	btfss	status,2,c
  1682   00120C  EF0A  F009         	goto	i2u167_41
  1683   001210  EF0C  F009         	goto	i2u167_40
  1684   001214                     i2u167_41:
  1685   001214  EF22  F009         	goto	i2l2023
  1686   001218                     i2u167_40:
  1687   001218                     i2l2019:
  1688                           
  1689                           ;main.c: 93:                   {;main.c: 94:                     int numero= rx_buf - '0
      +                          ';
  1690   001218  0ED0               	movlw	208
  1691   00121A  2455               	addwf	hint@rx_buf^0,w,c
  1692   00121C  6E4B               	movwf	hint@numero^0,c
  1693   00121E  6A4C               	clrf	(hint@numero+1)^0,c
  1694   001220  0EFF               	movlw	255
  1695   001222  224C               	addwfc	(hint@numero+1)^0,f,c
  1696   001224                     
  1697                           ;main.c: 95:                     acumulador= numero*1000;
  1698   001224  C04B  F001         	movff	hint@numero,___wmul@multiplier
  1699   001228  C04C  F002         	movff	hint@numero+1,___wmul@multiplier+1
  1700   00122C  0E03               	movlw	3
  1701   00122E  6E04               	movwf	(___wmul@multiplicand+1)^0,c
  1702   001230  0EE8               	movlw	232
  1703   001232  6E03               	movwf	___wmul@multiplicand^0,c
  1704   001234  ECFB  F00E         	call	___wmul	;wreg free
  1705   001238  C001  F05C         	movff	?___wmul,_acumulador
  1706   00123C  C002  F05D         	movff	?___wmul+1,_acumulador+1
  1707                           
  1708                           ;main.c: 96:                   }
  1709   001240  EF2C  F009         	goto	i2l2029
  1710   001244                     i2l2023:
  1711                           
  1712                           ;main.c: 98:                   {;main.c: 99:                     carac_rx=0;
  1713   001244  0E00               	movlw	0
  1714   001246  6E5B               	movwf	(_carac_rx+1)^0,c
  1715   001248  0E00               	movlw	0
  1716   00124A  6E5A               	movwf	_carac_rx^0,c
  1717   00124C                     
  1718                           ;main.c: 101:                     char* texto2 = " Error";
  1719   00124C  0ED5               	movlw	low STR_1
  1720   00124E  6E50               	movwf	hint@texto2^0,c
  1721   001250                     
  1722                           ;main.c: 102:                     Envia_cadena (texto2);
  1723   001250  C050  F02D         	movff	hint@texto2,Envia_cadena@texto
  1724   001254  EC93  F00D         	call	_Envia_cadena	;wreg free
  1725   001258                     i2l2029:
  1726                           
  1727                           ;main.c: 106:             if (carac_rx==9)
  1728   001258  0E09               	movlw	9
  1729   00125A  185A               	xorwf	_carac_rx^0,w,c
  1730   00125C  105B               	iorwf	(_carac_rx+1)^0,w,c
  1731   00125E  A4D8               	btfss	status,2,c
  1732   001260  EF34  F009         	goto	i2u168_41
  1733   001264  EF36  F009         	goto	i2u168_40
  1734   001268                     i2u168_41:
  1735   001268  EFA9  F009         	goto	i2l2063
  1736   00126C                     i2u168_40:
  1737   00126C                     
  1738                           ;main.c: 107:             {;main.c: 108:              if ((acumulador==1000) && (!(rx_bu
      +                          f==48)))
  1739   00126C  0EE8               	movlw	232
  1740   00126E  185C               	xorwf	_acumulador^0,w,c
  1741   001270  E107               	bnz	i2u169_41
  1742   001272  0E03               	movlw	3
  1743   001274  185D               	xorwf	(_acumulador+1)^0,w,c
  1744   001276  A4D8               	btfss	status,2,c
  1745   001278  EF40  F009         	goto	i2u169_41
  1746   00127C  EF42  F009         	goto	i2u169_40
  1747   001280                     i2u169_41:
  1748   001280  EF55  F009         	goto	i2l2041
  1749   001284                     i2u169_40:
  1750   001284  0E30               	movlw	48
  1751   001286  1855               	xorwf	hint@rx_buf^0,w,c
  1752   001288  B4D8               	btfsc	status,2,c
  1753   00128A  EF49  F009         	goto	i2u170_41
  1754   00128E  EF4B  F009         	goto	i2u170_40
  1755   001292                     i2u170_41:
  1756   001292  EF55  F009         	goto	i2l2041
  1757   001296                     i2u170_40:
  1758   001296                     
  1759                           ;main.c: 109:                {;main.c: 110:                  carac_rx=0;
  1760   001296  0E00               	movlw	0
  1761   001298  6E5B               	movwf	(_carac_rx+1)^0,c
  1762   00129A  0E00               	movlw	0
  1763   00129C  6E5A               	movwf	_carac_rx^0,c
  1764   00129E                     
  1765                           ;main.c: 112:                  char* texto3 = " Error";
  1766   00129E  0ED5               	movlw	low STR_1
  1767   0012A0  6E51               	movwf	hint@texto3^0,c
  1768   0012A2                     
  1769                           ;main.c: 113:                  Envia_cadena (texto3);
  1770   0012A2  C051  F02D         	movff	hint@texto3,Envia_cadena@texto
  1771   0012A6  EC93  F00D         	call	_Envia_cadena	;wreg free
  1772   0012AA                     i2l2041:
  1773                           
  1774                           ;main.c: 115:              if ((acumulador==0) && (!((rx_buf>48) && (rx_buf<=57))))
  1775   0012AA  505C               	movf	_acumulador^0,w,c
  1776   0012AC  105D               	iorwf	(_acumulador+1)^0,w,c
  1777   0012AE  A4D8               	btfss	status,2,c
  1778   0012B0  EF5C  F009         	goto	i2u171_41
  1779   0012B4  EF5E  F009         	goto	i2u171_40
  1780   0012B8                     i2u171_41:
  1781   0012B8  EF7A  F009         	goto	i2l2053
  1782   0012BC                     i2u171_40:
  1783   0012BC  0E30               	movlw	48
  1784   0012BE  6455               	cpfsgt	hint@rx_buf^0,c
  1785   0012C0  EF64  F009         	goto	i2u172_41
  1786   0012C4  EF66  F009         	goto	i2u172_40
  1787   0012C8                     i2u172_41:
  1788   0012C8  EF6E  F009         	goto	i2l2047
  1789   0012CC                     i2u172_40:
  1790   0012CC  0E39               	movlw	57
  1791   0012CE  6455               	cpfsgt	hint@rx_buf^0,c
  1792   0012D0  EF6C  F009         	goto	i2u173_41
  1793   0012D4  EF6E  F009         	goto	i2u173_40
  1794   0012D8                     i2u173_41:
  1795   0012D8  EF7A  F009         	goto	i2l2053
  1796   0012DC                     i2u173_40:
  1797   0012DC                     i2l2047:
  1798                           
  1799                           ;main.c: 116:                {;main.c: 117:                  carac_rx=0;
  1800   0012DC  0E00               	movlw	0
  1801   0012DE  6E5B               	movwf	(_carac_rx+1)^0,c
  1802   0012E0  0E00               	movlw	0
  1803   0012E2  6E5A               	movwf	_carac_rx^0,c
  1804   0012E4                     
  1805                           ;main.c: 119:                  char* texto4 = " Error";
  1806   0012E4  0ED5               	movlw	low STR_1
  1807   0012E6  6E52               	movwf	hint@texto4^0,c
  1808   0012E8                     
  1809                           ;main.c: 120:                  Envia_cadena (texto4);
  1810   0012E8  C052  F02D         	movff	hint@texto4,Envia_cadena@texto
  1811   0012EC  EC93  F00D         	call	_Envia_cadena	;wreg free
  1812                           
  1813                           ;main.c: 121:                }
  1814   0012F0  EFA9  F009         	goto	i2l2063
  1815   0012F4                     i2l2053:
  1816   0012F4  505C               	movf	_acumulador^0,w,c
  1817   0012F6  105D               	iorwf	(_acumulador+1)^0,w,c
  1818   0012F8  A4D8               	btfss	status,2,c
  1819   0012FA  EF81  F009         	goto	i2u174_41
  1820   0012FE  EF83  F009         	goto	i2u174_40
  1821   001302                     i2u174_41:
  1822   001302  EFA9  F009         	goto	i2l2063
  1823   001306                     i2u174_40:
  1824   001306  0E30               	movlw	48
  1825   001308  6455               	cpfsgt	hint@rx_buf^0,c
  1826   00130A  EF89  F009         	goto	i2u175_41
  1827   00130E  EF8B  F009         	goto	i2u175_40
  1828   001312                     i2u175_41:
  1829   001312  EFA9  F009         	goto	i2l2063
  1830   001316                     i2u175_40:
  1831   001316  0E3A               	movlw	58
  1832   001318  6055               	cpfslt	hint@rx_buf^0,c
  1833   00131A  EF91  F009         	goto	i2u176_41
  1834   00131E  EF93  F009         	goto	i2u176_40
  1835   001322                     i2u176_41:
  1836   001322  EFA9  F009         	goto	i2l2063
  1837   001326                     i2u176_40:
  1838   001326                     
  1839                           ;main.c: 123:                 {;main.c: 124:                  int numero= rx_buf - '0';
  1840   001326  0ED0               	movlw	208
  1841   001328  2455               	addwf	hint@rx_buf^0,w,c
  1842   00132A  6E4D               	movwf	hint@numero_335^0,c
  1843   00132C  6A4E               	clrf	(hint@numero_335+1)^0,c
  1844   00132E  0EFF               	movlw	255
  1845   001330  224E               	addwfc	(hint@numero_335+1)^0,f,c
  1846   001332                     
  1847                           ;main.c: 125:                  acumulador= acumulador + (numero*100);
  1848   001332  C04D  F001         	movff	hint@numero_335,___wmul@multiplier
  1849   001336  C04E  F002         	movff	hint@numero_335+1,___wmul@multiplier+1
  1850   00133A  0E00               	movlw	0
  1851   00133C  6E04               	movwf	(___wmul@multiplicand+1)^0,c
  1852   00133E  0E64               	movlw	100
  1853   001340  6E03               	movwf	___wmul@multiplicand^0,c
  1854   001342  ECFB  F00E         	call	___wmul	;wreg free
  1855   001346  505C               	movf	_acumulador^0,w,c
  1856   001348  2401               	addwf	?___wmul^0,w,c
  1857   00134A  6E5C               	movwf	_acumulador^0,c
  1858   00134C  505D               	movf	(_acumulador+1)^0,w,c
  1859   00134E  2002               	addwfc	(?___wmul+1)^0,w,c
  1860   001350  6E5D               	movwf	(_acumulador+1)^0,c
  1861   001352                     i2l2063:
  1862                           
  1863                           ;main.c: 130:             if ((carac_rx==10)|| (carac_rx==11))
  1864   001352  0E0A               	movlw	10
  1865   001354  185A               	xorwf	_carac_rx^0,w,c
  1866   001356  105B               	iorwf	(_carac_rx+1)^0,w,c
  1867   001358  B4D8               	btfsc	status,2,c
  1868   00135A  EFB1  F009         	goto	i2u177_41
  1869   00135E  EFB3  F009         	goto	i2u177_40
  1870   001362                     i2u177_41:
  1871   001362  EFBD  F009         	goto	i2l2067
  1872   001366                     i2u177_40:
  1873   001366  0E0B               	movlw	11
  1874   001368  185A               	xorwf	_carac_rx^0,w,c
  1875   00136A  105B               	iorwf	(_carac_rx+1)^0,w,c
  1876   00136C  A4D8               	btfss	status,2,c
  1877   00136E  EFBB  F009         	goto	i2u178_41
  1878   001372  EFBD  F009         	goto	i2u178_40
  1879   001376                     i2u178_41:
  1880   001376  EFEF  F009         	goto	i2l2087
  1881   00137A                     i2u178_40:
  1882   00137A                     i2l2067:
  1883                           
  1884                           ;main.c: 131:              {;main.c: 132:                 if (rx_buf==48)
  1885   00137A  0E30               	movlw	48
  1886   00137C  1855               	xorwf	hint@rx_buf^0,w,c
  1887   00137E  A4D8               	btfss	status,2,c
  1888   001380  EFC4  F009         	goto	i2u179_41
  1889   001384  EFC6  F009         	goto	i2u179_40
  1890   001388                     i2u179_41:
  1891   001388  EFE5  F009         	goto	i2l2081
  1892   00138C                     i2u179_40:
  1893   00138C                     
  1894                           ;main.c: 133:                   {;main.c: 134:                     if (carac_rx==11)
  1895   00138C  0E0B               	movlw	11
  1896   00138E  185A               	xorwf	_carac_rx^0,w,c
  1897   001390  105B               	iorwf	(_carac_rx+1)^0,w,c
  1898   001392  A4D8               	btfss	status,2,c
  1899   001394  EFCE  F009         	goto	i2u180_41
  1900   001398  EFD0  F009         	goto	i2u180_40
  1901   00139C                     i2u180_41:
  1902   00139C  EFEF  F009         	goto	i2l2087
  1903   0013A0                     i2u180_40:
  1904   0013A0                     
  1905                           ;main.c: 135:                         {;main.c: 137:                           char* tex
      +                          to5 = "Datos recibidos";
  1906   0013A0  0EC5               	movlw	low STR_6
  1907   0013A2  6E53               	movwf	hint@texto5^0,c
  1908   0013A4                     
  1909                           ;main.c: 138:                           Envia_cadena (texto5);
  1910   0013A4  C053  F02D         	movff	hint@texto5,Envia_cadena@texto
  1911   0013A8  EC93  F00D         	call	_Envia_cadena	;wreg free
  1912   0013AC                     
  1913                           ;main.c: 139:                           tiempo=acumulador;
  1914   0013AC  C05C  F0ED         	movff	_acumulador,_tiempo
  1915   0013B0  C05D  F0EE         	movff	_acumulador+1,_tiempo+1
  1916   0013B4                     
  1917                           ;main.c: 140:                           contador=0;
  1918   0013B4  0E00               	movlw	0
  1919   0013B6  0101               	movlb	1	; () banked
  1920   0013B8  6F51               	movwf	(_contador+1)& (0+255),b
  1921   0013BA  0E00               	movlw	0
  1922   0013BC  6F50               	movwf	_contador& (0+255),b
  1923   0013BE                     
  1924                           ; BSR set to: 1
  1925                           ;main.c: 141:                           carac_rx=0;
  1926   0013BE  0E00               	movlw	0
  1927   0013C0  6E5B               	movwf	(_carac_rx+1)^0,c
  1928   0013C2  0E00               	movlw	0
  1929   0013C4  6E5A               	movwf	_carac_rx^0,c
  1930   0013C6  EFEF  F009         	goto	i2l2087
  1931   0013CA                     i2l2081:
  1932                           
  1933                           ;main.c: 146:                   {;main.c: 147:                     carac_rx=0;
  1934   0013CA  0E00               	movlw	0
  1935   0013CC  6E5B               	movwf	(_carac_rx+1)^0,c
  1936   0013CE  0E00               	movlw	0
  1937   0013D0  6E5A               	movwf	_carac_rx^0,c
  1938   0013D2                     
  1939                           ;main.c: 149:                     char* texto6 = " Error";
  1940   0013D2  0ED5               	movlw	low STR_1
  1941   0013D4  6E54               	movwf	hint@texto6^0,c
  1942   0013D6                     
  1943                           ;main.c: 150:                     Envia_cadena (texto6);
  1944   0013D6  C054  F02D         	movff	hint@texto6,Envia_cadena@texto
  1945   0013DA  EC93  F00D         	call	_Envia_cadena	;wreg free
  1946   0013DE                     i2l2087:
  1947                           
  1948                           ;main.c: 154:             PIR1bits.RCIF=0;
  1949   0013DE  9A9E               	bcf	158,5,c	;volatile
  1950   0013E0                     i2l92:
  1951   0013E0  C04A  FFF5         	movff	??_hint+10,tablat
  1952   0013E4  C049  FFF8         	movff	??_hint+9,tblptru
  1953   0013E8  C048  FFF7         	movff	??_hint+8,tblptrh
  1954   0013EC  C047  FFF6         	movff	??_hint+7,tblptrl
  1955   0013F0  C046  FFF4         	movff	??_hint+6,prodh
  1956   0013F4  C045  FFF3         	movff	??_hint+5,prodl
  1957   0013F8  C044  FFDA         	movff	??_hint+4,fsr2h
  1958   0013FC  C043  FFD9         	movff	??_hint+3,fsr2l
  1959   001400  C042  FFE2         	movff	??_hint+2,fsr1h
  1960   001404  C041  FFE1         	movff	??_hint+1,fsr1l
  1961   001408  925F               	bcf	int$flags,1,c	;clear compiler interrupt flag (level 2)
  1962   00140A  0011               	retfie		f
  1963   00140C                     __end_of_hint:
  1964                           	callstack 0
  1965                           
  1966 ;; *************** function i2_Envia_text *****************
  1967 ;; Defined at:
  1968 ;;		line 212 in file "main.c"
  1969 ;; Parameters:    Size  Location     Type
  1970 ;;  texto           2    0[COMRAM] PTR unsigned char 
  1971 ;;		 -> listo(19), error(5), 
  1972 ;;  num_let         2    2[COMRAM] int 
  1973 ;; Auto vars:     Size  Location     Type
  1974 ;;  i               2    5[COMRAM] int 
  1975 ;; Return value:  Size  Location     Type
  1976 ;;                  1    wreg      void 
  1977 ;; Registers used:
  1978 ;;		wreg, fsr2l, fsr2h, status,2, status,0
  1979 ;; Tracked objects:
  1980 ;;		On entry : 0/0
  1981 ;;		On exit  : 0/0
  1982 ;;		Unchanged: 0/0
  1983 ;; Data sizes:     COMRAM   BANK0   BANK1   BANK2   BANK3   BANK4   BANK5   BANK6   BANK7
  1984 ;;      Params:         4       0       0       0       0       0       0       0       0
  1985 ;;      Locals:         2       0       0       0       0       0       0       0       0
  1986 ;;      Temps:          1       0       0       0       0       0       0       0       0
  1987 ;;      Totals:         7       0       0       0       0       0       0       0       0
  1988 ;;Total ram usage:        7 bytes
  1989 ;; Hardware stack levels used: 1
  1990 ;; This function calls:
  1991 ;;		Nothing
  1992 ;; This function is called by:
  1993 ;;		_hint
  1994 ;; This function uses a non-reentrant model
  1995 ;;
  1996                           
  1997                           	psect	text6
  1998   001C50                     __ptext6:
  1999                           	callstack 0
  2000   001C50                     i2_Envia_text:
  2001                           	callstack 26
  2002   001C50                     
  2003                           ;main.c: 212: void Envia_text (char *texto, int num_let);main.c: 213: {;main.c: 214:    
      +                           for (int i=0;i<num_let;i++)
  2004   001C50  0E00               	movlw	0
  2005   001C52  6E07               	movwf	(i2Envia_text@i+1)^0,c
  2006   001C54  0E00               	movlw	0
  2007   001C56  6E06               	movwf	i2Envia_text@i^0,c
  2008   001C58  EF40  F00E         	goto	i2l1979
  2009   001C5C                     i2l1973:
  2010                           
  2011                           ;main.c: 215:                       {;main.c: 216:                         TXREG1=texto[
      +                          i];
  2012   001C5C  5006               	movf	i2Envia_text@i^0,w,c
  2013   001C5E  2401               	addwf	i2Envia_text@texto^0,w,c
  2014   001C60  6ED9               	movwf	fsr2l,c
  2015   001C62  5007               	movf	(i2Envia_text@i+1)^0,w,c
  2016   001C64  2002               	addwfc	(i2Envia_text@texto+1)^0,w,c
  2017   001C66  6EDA               	movwf	fsr2h,c
  2018   001C68  50DF               	movf	indf2,w,c
  2019   001C6A  6EAD               	movwf	173,c	;volatile
  2020   001C6C                     
  2021                           ;main.c: 217:                         PIR1bits.TXIF=0;
  2022   001C6C  989E               	bcf	158,4,c	;volatile
  2023   001C6E                     i2l113:
  2024   001C6E  A89E               	btfss	158,4,c	;volatile
  2025   001C70  EF3C  F00E         	goto	i2u157_41
  2026   001C74  EF3E  F00E         	goto	i2u157_40
  2027   001C78                     i2u157_41:
  2028   001C78  EF37  F00E         	goto	i2l113
  2029   001C7C                     i2u157_40:
  2030   001C7C                     
  2031                           ;main.c: 219:                       }
  2032   001C7C  4A06               	infsnz	i2Envia_text@i^0,f,c
  2033   001C7E  2A07               	incf	(i2Envia_text@i+1)^0,f,c
  2034   001C80                     i2l1979:
  2035   001C80  5003               	movf	i2Envia_text@num_let^0,w,c
  2036   001C82  5C06               	subwf	i2Envia_text@i^0,w,c
  2037   001C84  5007               	movf	(i2Envia_text@i+1)^0,w,c
  2038   001C86  0A80               	xorlw	128
  2039   001C88  6E05               	movwf	??i2_Envia_text^0,c
  2040   001C8A  5004               	movf	(i2Envia_text@num_let+1)^0,w,c
  2041   001C8C  0A80               	xorlw	128
  2042   001C8E  5805               	subwfb	??i2_Envia_text^0,w,c
  2043   001C90  A0D8               	btfss	status,0,c
  2044   001C92  EF4D  F00E         	goto	i2u158_41
  2045   001C96  EF4F  F00E         	goto	i2u158_40
  2046   001C9A                     i2u158_41:
  2047   001C9A  EF2E  F00E         	goto	i2l1973
  2048   001C9E                     i2u158_40:
  2049   001C9E  0012               	return		;funcret
  2050   001CA0                     __end_ofi2_Envia_text:
  2051                           	callstack 0
  2052                           
  2053 ;; *************** function ___wmul *****************
  2054 ;; Defined at:
  2055 ;;		line 15 in file "C:\Program Files\Microchip\xc8\v2.46\pic\sources\c99\common\Umul16.c"
  2056 ;; Parameters:    Size  Location     Type
  2057 ;;  multiplier      2    0[COMRAM] unsigned int 
  2058 ;;  multiplicand    2    2[COMRAM] unsigned int 
  2059 ;; Auto vars:     Size  Location     Type
  2060 ;;  product         2    4[COMRAM] unsigned int 
  2061 ;; Return value:  Size  Location     Type
  2062 ;;                  2    0[COMRAM] unsigned int 
  2063 ;; Registers used:
  2064 ;;		wreg, status,2, status,0, prodl, prodh
  2065 ;; Tracked objects:
  2066 ;;		On entry : 0/0
  2067 ;;		On exit  : 0/0
  2068 ;;		Unchanged: 0/0
  2069 ;; Data sizes:     COMRAM   BANK0   BANK1   BANK2   BANK3   BANK4   BANK5   BANK6   BANK7
  2070 ;;      Params:         4       0       0       0       0       0       0       0       0
  2071 ;;      Locals:         2       0       0       0       0       0       0       0       0
  2072 ;;      Temps:          0       0       0       0       0       0       0       0       0
  2073 ;;      Totals:         6       0       0       0       0       0       0       0       0
  2074 ;;Total ram usage:        6 bytes
  2075 ;; Hardware stack levels used: 1
  2076 ;; This function calls:
  2077 ;;		Nothing
  2078 ;; This function is called by:
  2079 ;;		_hint
  2080 ;; This function uses a non-reentrant model
  2081 ;;
  2082                           
  2083                           	psect	text7
  2084   001DF6                     __ptext7:
  2085                           	callstack 0
  2086   001DF6                     ___wmul:
  2087                           	callstack 26
  2088   001DF6  5001               	movf	___wmul@multiplier^0,w,c
  2089   001DF8  0203               	mulwf	___wmul@multiplicand^0,c
  2090   001DFA  CFF3 F005          	movff	prodl,___wmul@product
  2091   001DFE  CFF4 F006          	movff	prodh,___wmul@product+1
  2092   001E02  5001               	movf	___wmul@multiplier^0,w,c
  2093   001E04  0204               	mulwf	(___wmul@multiplicand+1)^0,c
  2094   001E06  50F3               	movf	243,w,c
  2095   001E08  2606               	addwf	(___wmul@product+1)^0,f,c
  2096   001E0A  5002               	movf	(___wmul@multiplier+1)^0,w,c
  2097   001E0C  0203               	mulwf	___wmul@multiplicand^0,c
  2098   001E0E  50F3               	movf	243,w,c
  2099   001E10  2606               	addwf	(___wmul@product+1)^0,f,c
  2100   001E12  C005  F001         	movff	___wmul@product,?___wmul
  2101   001E16  C006  F002         	movff	___wmul@product+1,?___wmul+1
  2102   001E1A  0012               	return		;funcret
  2103   001E1C                     __end_of___wmul:
  2104                           	callstack 0
  2105                           
  2106 ;; *************** function _Envia_tiempo *****************
  2107 ;; Defined at:
  2108 ;;		line 222 in file "main.c"
  2109 ;; Parameters:    Size  Location     Type
  2110 ;;  tiempo          2   44[COMRAM] int 
  2111 ;; Auto vars:     Size  Location     Type
  2112 ;;  i               2   61[COMRAM] int 
  2113 ;;  buffer         10   47[COMRAM] unsigned char [10]
  2114 ;;  tiempo1         2   59[COMRAM] int 
  2115 ;;  cant_digitos    2   57[COMRAM] int 
  2116 ;; Return value:  Size  Location     Type
  2117 ;;                  1    wreg      void 
  2118 ;; Registers used:
  2119 ;;		wreg, fsr1l, fsr1h, fsr2l, fsr2h, status,2, status,0, tblptrl, tblptrh, tblptru, cstack
  2120 ;; Tracked objects:
  2121 ;;		On entry : 0/0
  2122 ;;		On exit  : 0/0
  2123 ;;		Unchanged: 0/0
  2124 ;; Data sizes:     COMRAM   BANK0   BANK1   BANK2   BANK3   BANK4   BANK5   BANK6   BANK7
  2125 ;;      Params:         2       0       0       0       0       0       0       0       0
  2126 ;;      Locals:        16       0       0       0       0       0       0       0       0
  2127 ;;      Temps:          1       0       0       0       0       0       0       0       0
  2128 ;;      Totals:        19       0       0       0       0       0       0       0       0
  2129 ;;Total ram usage:       19 bytes
  2130 ;; Hardware stack levels used: 1
  2131 ;; Hardware stack levels required when called: 5
  2132 ;; This function calls:
  2133 ;;		_sprintf
  2134 ;;		i2___awdiv
  2135 ;; This function is called by:
  2136 ;;		_hint
  2137 ;; This function uses a non-reentrant model
  2138 ;;
  2139                           
  2140                           	psect	text8
  2141   001958                     __ptext8:
  2142                           	callstack 0
  2143   001958                     _Envia_tiempo:
  2144                           	callstack 21
  2145   001958                     
  2146                           ;main.c: 222: void Envia_tiempo (int tiempo);main.c: 223: {;main.c: 224:     int cant_di
      +                          gitos=0;
  2147   001958  0E00               	movlw	0
  2148   00195A  6E3B               	movwf	(Envia_tiempo@cant_digitos+1)^0,c
  2149   00195C  0E00               	movlw	0
  2150   00195E  6E3A               	movwf	Envia_tiempo@cant_digitos^0,c
  2151   001960                     
  2152                           ;main.c: 225:     int tiempo1=tiempo;
  2153   001960  C02D  F03C         	movff	Envia_tiempo@tiempo,Envia_tiempo@tiempo1
  2154   001964  C02E  F03D         	movff	Envia_tiempo@tiempo+1,Envia_tiempo@tiempo1+1
  2155                           
  2156                           ;main.c: 227:     while (tiempo1 > 0)
  2157   001968  EFC6  F00C         	goto	i2l1701
  2158   00196C                     i2l1697:
  2159                           
  2160                           ;main.c: 228:      {;main.c: 229:         cant_digitos++;
  2161   00196C  4A3A               	infsnz	Envia_tiempo@cant_digitos^0,f,c
  2162   00196E  2A3B               	incf	(Envia_tiempo@cant_digitos+1)^0,f,c
  2163   001970                     
  2164                           ;main.c: 230:         tiempo1 /=10 ;
  2165   001970  C03C  F001         	movff	Envia_tiempo@tiempo1,i2___awdiv@dividend
  2166   001974  C03D  F002         	movff	Envia_tiempo@tiempo1+1,i2___awdiv@dividend+1
  2167   001978  0E00               	movlw	0
  2168   00197A  6E04               	movwf	(i2___awdiv@divisor+1)^0,c
  2169   00197C  0E0A               	movlw	10
  2170   00197E  6E03               	movwf	i2___awdiv@divisor^0,c
  2171   001980  ECF2  F00B         	call	i2___awdiv	;wreg free
  2172   001984  C001  F03C         	movff	?i2___awdiv,Envia_tiempo@tiempo1
  2173   001988  C002  F03D         	movff	?i2___awdiv+1,Envia_tiempo@tiempo1+1
  2174   00198C                     i2l1701:
  2175                           
  2176                           ;main.c: 227:     while (tiempo1 > 0)
  2177   00198C  BE3D               	btfsc	(Envia_tiempo@tiempo1+1)^0,7,c
  2178   00198E  EFD3  F00C         	goto	i2u119_40
  2179   001992  503D               	movf	(Envia_tiempo@tiempo1+1)^0,w,c
  2180   001994  E106               	bnz	i2u119_41
  2181   001996  043C               	decf	Envia_tiempo@tiempo1^0,w,c
  2182   001998  B0D8               	btfsc	status,0,c
  2183   00199A  EFD1  F00C         	goto	i2u119_41
  2184   00199E  EFD3  F00C         	goto	i2u119_40
  2185   0019A2                     i2u119_41:
  2186   0019A2  EFB6  F00C         	goto	i2l1697
  2187   0019A6                     i2u119_40:
  2188   0019A6                     
  2189                           ;main.c: 232:     char buffer[10];;main.c: 233:     sprintf(buffer,"%d",tiempo);
  2190   0019A6  0E30               	movlw	low Envia_tiempo@buffer
  2191   0019A8  6E1C               	movwf	sprintf@s^0,c
  2192   0019AA  0EDC               	movlw	low STR_8
  2193   0019AC  6E1D               	movwf	sprintf@fmt^0,c
  2194   0019AE  C02D  F01E         	movff	Envia_tiempo@tiempo,?_sprintf+2
  2195   0019B2  C02E  F01F         	movff	Envia_tiempo@tiempo+1,?_sprintf+3
  2196   0019B6  ECB0  F00E         	call	_sprintf	;wreg free
  2197   0019BA                     
  2198                           ;main.c: 234:     for (int i=0;i<cant_digitos;i++)
  2199   0019BA  0E00               	movlw	0
  2200   0019BC  6E3F               	movwf	(Envia_tiempo@i+1)^0,c
  2201   0019BE  0E00               	movlw	0
  2202   0019C0  6E3E               	movwf	Envia_tiempo@i^0,c
  2203   0019C2  EFF3  F00C         	goto	i2l1713
  2204   0019C6                     i2l1707:
  2205                           
  2206                           ;main.c: 235:                       {;main.c: 236:                         TXREG1=buffer
      +                          [i];
  2207   0019C6  503E               	movf	Envia_tiempo@i^0,w,c
  2208   0019C8  0F30               	addlw	low Envia_tiempo@buffer
  2209   0019CA  6ED9               	movwf	fsr2l,c
  2210   0019CC  6ADA               	clrf	fsr2h,c
  2211   0019CE  50DF               	movf	indf2,w,c
  2212   0019D0  6EAD               	movwf	173,c	;volatile
  2213   0019D2                     
  2214                           ;main.c: 237:                         PIR1bits.TXIF=0;
  2215   0019D2  989E               	bcf	158,4,c	;volatile
  2216   0019D4                     i2l125:
  2217   0019D4  A89E               	btfss	158,4,c	;volatile
  2218   0019D6  EFEF  F00C         	goto	i2u120_41
  2219   0019DA  EFF1  F00C         	goto	i2u120_40
  2220   0019DE                     i2u120_41:
  2221   0019DE  EFEA  F00C         	goto	i2l125
  2222   0019E2                     i2u120_40:
  2223   0019E2                     
  2224                           ;main.c: 239:                       }
  2225   0019E2  4A3E               	infsnz	Envia_tiempo@i^0,f,c
  2226   0019E4  2A3F               	incf	(Envia_tiempo@i+1)^0,f,c
  2227   0019E6                     i2l1713:
  2228   0019E6  503A               	movf	Envia_tiempo@cant_digitos^0,w,c
  2229   0019E8  5C3E               	subwf	Envia_tiempo@i^0,w,c
  2230   0019EA  503F               	movf	(Envia_tiempo@i+1)^0,w,c
  2231   0019EC  0A80               	xorlw	128
  2232   0019EE  6E2F               	movwf	??_Envia_tiempo^0,c
  2233   0019F0  503B               	movf	(Envia_tiempo@cant_digitos+1)^0,w,c
  2234   0019F2  0A80               	xorlw	128
  2235   0019F4  582F               	subwfb	??_Envia_tiempo^0,w,c
  2236   0019F6  A0D8               	btfss	status,0,c
  2237   0019F8  EF00  F00D         	goto	i2u121_41
  2238   0019FC  EF02  F00D         	goto	i2u121_40
  2239   001A00                     i2u121_41:
  2240   001A00  EFE3  F00C         	goto	i2l1707
  2241   001A04                     i2u121_40:
  2242   001A04  0012               	return		;funcret
  2243   001A06                     __end_of_Envia_tiempo:
  2244                           	callstack 0
  2245                           
  2246 ;; *************** function _Envia_cadena *****************
  2247 ;; Defined at:
  2248 ;;		line 243 in file "main.c"
  2249 ;; Parameters:    Size  Location     Type
  2250 ;;  texto           1   44[COMRAM] PTR const unsigned char 
  2251 ;;		 -> STR_7(7), STR_6(16), STR_5(7), STR_4(7), 
  2252 ;;		 -> STR_3(7), STR_2(16), 
  2253 ;; Auto vars:     Size  Location     Type
  2254 ;;  i               2  102[BANK0 ] int 
  2255 ;;  buffer        100    0[BANK0 ] unsigned char [100]
  2256 ;;  cantidad        2  100[BANK0 ] unsigned int 
  2257 ;; Return value:  Size  Location     Type
  2258 ;;                  1    wreg      void 
  2259 ;; Registers used:
  2260 ;;		wreg, fsr1l, fsr1h, fsr2l, fsr2h, status,2, status,0, tblptrl, tblptrh, tblptru, cstack
  2261 ;; Tracked objects:
  2262 ;;		On entry : 0/0
  2263 ;;		On exit  : 0/0
  2264 ;;		Unchanged: 0/0
  2265 ;; Data sizes:     COMRAM   BANK0   BANK1   BANK2   BANK3   BANK4   BANK5   BANK6   BANK7
  2266 ;;      Params:         1       0       0       0       0       0       0       0       0
  2267 ;;      Locals:         0     104       0       0       0       0       0       0       0
  2268 ;;      Temps:          0       0       0       0       0       0       0       0       0
  2269 ;;      Totals:         1     104       0       0       0       0       0       0       0
  2270 ;;Total ram usage:      105 bytes
  2271 ;; Hardware stack levels used: 1
  2272 ;; Hardware stack levels required when called: 5
  2273 ;; This function calls:
  2274 ;;		_sprintf
  2275 ;;		_strlen
  2276 ;; This function is called by:
  2277 ;;		_hint
  2278 ;; This function uses a non-reentrant model
  2279 ;;
  2280                           
  2281                           	psect	text9
  2282   001B26                     __ptext9:
  2283                           	callstack 0
  2284   001B26                     _Envia_cadena:
  2285                           	callstack 21
  2286   001B26                     
  2287                           ;main.c: 243: void Envia_cadena (const char* texto);main.c: 244: {;main.c: 245:     unsi
      +                          gned int cantidad = strlen(texto);
  2288   001B26  C02D  F001         	movff	Envia_cadena@texto,strlen@s
  2289   001B2A  EC96  F00E         	call	_strlen	;wreg free
  2290   001B2E  C001  F0C4         	movff	?_strlen,Envia_cadena@cantidad
  2291   001B32  C002  F0C5         	movff	?_strlen+1,Envia_cadena@cantidad+1
  2292   001B36                     
  2293                           ;main.c: 246:     char buffer[100];;main.c: 247:     sprintf(buffer,"%s",texto);
  2294   001B36  0E60               	movlw	low Envia_cadena@buffer
  2295   001B38  6E1C               	movwf	sprintf@s^0,c
  2296   001B3A  0EDF               	movlw	low STR_9
  2297   001B3C  6E1D               	movwf	sprintf@fmt^0,c
  2298   001B3E  C02D  F01E         	movff	Envia_cadena@texto,?_sprintf+2
  2299   001B42  501E               	movf	(?_sprintf+2)^0,w,c
  2300   001B44  A4D8               	btfss	status,2,c
  2301   001B46  0E10               	movlw	high __smallconst
  2302   001B48  6E1F               	movwf	(?_sprintf+3)^0,c
  2303   001B4A  ECB0  F00E         	call	_sprintf	;wreg free
  2304   001B4E                     
  2305                           ;main.c: 248:     for (int i=0;i<cantidad;i++)
  2306   001B4E  0E00               	movlw	0
  2307   001B50  0100               	movlb	0	; () banked
  2308   001B52  6FC7               	movwf	(Envia_cadena@i+1)& (0+255),b
  2309   001B54  0E00               	movlw	0
  2310   001B56  6FC6               	movwf	Envia_cadena@i& (0+255),b
  2311   001B58  EFBF  F00D         	goto	i2l1691
  2312   001B5C                     i2l1685:
  2313                           
  2314                           ; BSR set to: 0
  2315                           ;main.c: 249:                       {;main.c: 250:                         TXREG1=buffer
      +                          [i];
  2316   001B5C  51C6               	movf	Envia_cadena@i& (0+255),w,b
  2317   001B5E  0F60               	addlw	low Envia_cadena@buffer
  2318   001B60  6ED9               	movwf	fsr2l,c
  2319   001B62  6ADA               	clrf	fsr2h,c
  2320   001B64  50DF               	movf	indf2,w,c
  2321   001B66  6EAD               	movwf	173,c	;volatile
  2322   001B68                     
  2323                           ; BSR set to: 0
  2324                           ;main.c: 251:                         PIR1bits.TXIF=0;
  2325   001B68  989E               	bcf	158,4,c	;volatile
  2326   001B6A                     i2l134:
  2327   001B6A  A89E               	btfss	158,4,c	;volatile
  2328   001B6C  EFBA  F00D         	goto	i2u117_41
  2329   001B70  EFBC  F00D         	goto	i2u117_40
  2330   001B74                     i2u117_41:
  2331   001B74  EFB5  F00D         	goto	i2l134
  2332   001B78                     i2u117_40:
  2333   001B78                     
  2334                           ;main.c: 253:                       }
  2335   001B78  0100               	movlb	0	; () banked
  2336   001B7A  4BC6               	infsnz	Envia_cadena@i& (0+255),f,b
  2337   001B7C  2BC7               	incf	(Envia_cadena@i+1)& (0+255),f,b
  2338   001B7E                     i2l1691:
  2339                           
  2340                           ; BSR set to: 0
  2341   001B7E  51C4               	movf	Envia_cadena@cantidad& (0+255),w,b
  2342   001B80  5DC6               	subwf	Envia_cadena@i& (0+255),w,b
  2343   001B82  51C5               	movf	(Envia_cadena@cantidad+1)& (0+255),w,b
  2344   001B84  59C7               	subwfb	(Envia_cadena@i+1)& (0+255),w,b
  2345   001B86  A0D8               	btfss	status,0,c
  2346   001B88  EFC8  F00D         	goto	i2u118_41
  2347   001B8C  EFCA  F00D         	goto	i2u118_40
  2348   001B90                     i2u118_41:
  2349   001B90  EFAE  F00D         	goto	i2l1685
  2350   001B94                     i2u118_40:
  2351   001B94                     
  2352                           ; BSR set to: 0
  2353   001B94  0012               	return		;funcret
  2354   001B96                     __end_of_Envia_cadena:
  2355                           	callstack 0
  2356                           
  2357 ;; *************** function _strlen *****************
  2358 ;; Defined at:
  2359 ;;		line 5 in file "C:\Program Files\Microchip\xc8\v2.46\pic\sources\c99\common\strlen.c"
  2360 ;; Parameters:    Size  Location     Type
  2361 ;;  s               1    0[COMRAM] PTR const unsigned char 
  2362 ;;		 -> STR_7(7), STR_6(16), STR_5(7), STR_4(7), 
  2363 ;;		 -> STR_3(7), STR_2(16), 
  2364 ;; Auto vars:     Size  Location     Type
  2365 ;;  a               1    2[COMRAM] PTR const unsigned char 
  2366 ;;		 -> STR_7(7), STR_6(16), STR_5(7), STR_4(7), 
  2367 ;;		 -> STR_3(7), STR_2(16), 
  2368 ;; Return value:  Size  Location     Type
  2369 ;;                  2    0[COMRAM] unsigned int 
  2370 ;; Registers used:
  2371 ;;		wreg, status,2, status,0, tblptrl, tblptrh, tblptru
  2372 ;; Tracked objects:
  2373 ;;		On entry : 0/0
  2374 ;;		On exit  : 0/0
  2375 ;;		Unchanged: 0/0
  2376 ;; Data sizes:     COMRAM   BANK0   BANK1   BANK2   BANK3   BANK4   BANK5   BANK6   BANK7
  2377 ;;      Params:         2       0       0       0       0       0       0       0       0
  2378 ;;      Locals:         1       0       0       0       0       0       0       0       0
  2379 ;;      Temps:          0       0       0       0       0       0       0       0       0
  2380 ;;      Totals:         3       0       0       0       0       0       0       0       0
  2381 ;;Total ram usage:        3 bytes
  2382 ;; Hardware stack levels used: 1
  2383 ;; This function calls:
  2384 ;;		Nothing
  2385 ;; This function is called by:
  2386 ;;		_Envia_cadena
  2387 ;; This function uses a non-reentrant model
  2388 ;;
  2389                           
  2390                           	psect	text10
  2391   001D2C                     __ptext10:
  2392                           	callstack 0
  2393   001D2C                     _strlen:
  2394                           	callstack 25
  2395   001D2C  C001  F003         	movff	strlen@s,strlen@a
  2396   001D30  EF9B  F00E         	goto	i2l1663
  2397   001D34                     i2l1661:
  2398   001D34  2A01               	incf	strlen@s^0,f,c
  2399   001D36                     i2l1663:
  2400   001D36  C001  FFF6         	movff	strlen@s,tblptrl
  2401   001D3A                     	if	1	;There is more than 1 active tblptr byte
  2402   001D3A  0E10               	movlw	high __smallconst
  2403   001D3C  6EF7               	movwf	tblptrh,c
  2404   001D3E                     	endif
  2405   001D3E                     	if	0	;tblptru may be non-zero
  2406   001D3E                     	endif
  2407   001D3E                     	if	0	;tblptru may be non-zero
  2408   001D3E                     	endif
  2409   001D3E  0008               	tblrd		*
  2410   001D40  50F5               	movf	tablat,w,c
  2411   001D42  0900               	iorlw	0
  2412   001D44  A4D8               	btfss	status,2,c
  2413   001D46  EFA7  F00E         	goto	i2u114_41
  2414   001D4A  EFA9  F00E         	goto	i2u114_40
  2415   001D4E                     i2u114_41:
  2416   001D4E  EF9A  F00E         	goto	i2l1661
  2417   001D52                     i2u114_40:
  2418   001D52  5003               	movf	strlen@a^0,w,c
  2419   001D54  5C01               	subwf	strlen@s^0,w,c
  2420   001D56  6E01               	movwf	?_strlen^0,c
  2421   001D58  6A02               	clrf	(?_strlen+1)^0,c
  2422   001D5A  BE01               	btfsc	?_strlen^0,7,c
  2423   001D5C  0602               	decf	(?_strlen+1)^0,f,c
  2424   001D5E  0012               	return		;funcret
  2425   001D60                     __end_of_strlen:
  2426                           	callstack 0
  2427                           
  2428 ;; *************** function _sprintf *****************
  2429 ;; Defined at:
  2430 ;;		line 9 in file "C:\Program Files\Microchip\xc8\v2.46\pic\sources\c99\common\nf_sprintf.c"
  2431 ;; Parameters:    Size  Location     Type
  2432 ;;  s               1   27[COMRAM] PTR unsigned char 
  2433 ;;		 -> Envia_cadena@buffer(100), Envia_tiempo@buffer(10), 
  2434 ;;  fmt             1   28[COMRAM] PTR const unsigned char 
  2435 ;;		 -> STR_9(3), STR_8(3), 
  2436 ;; Auto vars:     Size  Location     Type
  2437 ;;  f              12   32[COMRAM] struct _IO_FILE
  2438 ;;  ret             2    0        int 
  2439 ;;  ap              1   31[COMRAM] PTR void [1]
  2440 ;;		 -> ?_sprintf(2), 
  2441 ;; Return value:  Size  Location     Type
  2442 ;;                  2   27[COMRAM] int 
  2443 ;; Registers used:
  2444 ;;		wreg, fsr1l, fsr1h, fsr2l, fsr2h, status,2, status,0, tblptrl, tblptrh, tblptru, cstack
  2445 ;; Tracked objects:
  2446 ;;		On entry : 0/0
  2447 ;;		On exit  : 0/0
  2448 ;;		Unchanged: 0/0
  2449 ;; Data sizes:     COMRAM   BANK0   BANK1   BANK2   BANK3   BANK4   BANK5   BANK6   BANK7
  2450 ;;      Params:         4       0       0       0       0       0       0       0       0
  2451 ;;      Locals:        13       0       0       0       0       0       0       0       0
  2452 ;;      Temps:          0       0       0       0       0       0       0       0       0
  2453 ;;      Totals:        17       0       0       0       0       0       0       0       0
  2454 ;;Total ram usage:       17 bytes
  2455 ;; Hardware stack levels used: 1
  2456 ;; Hardware stack levels required when called: 4
  2457 ;; This function calls:
  2458 ;;		_vfprintf
  2459 ;; This function is called by:
  2460 ;;		_Envia_tiempo
  2461 ;;		_Envia_cadena
  2462 ;; This function uses a non-reentrant model
  2463 ;;
  2464                           
  2465                           	psect	text11
  2466   001D60                     __ptext11:
  2467                           	callstack 0
  2468   001D60                     _sprintf:
  2469                           	callstack 21
  2470   001D60  0E1E               	movlw	low (?_sprintf+2)
  2471   001D62  6E20               	movwf	sprintf@ap^0,c
  2472   001D64  C01C  F021         	movff	sprintf@s,sprintf@f
  2473   001D68  0E00               	movlw	0
  2474   001D6A  6E25               	movwf	(sprintf@f+4)^0,c
  2475   001D6C  0E00               	movlw	0
  2476   001D6E  6E24               	movwf	(sprintf@f+3)^0,c
  2477   001D70  0E00               	movlw	0
  2478   001D72  6E2C               	movwf	(sprintf@f+11)^0,c
  2479   001D74  0E00               	movlw	0
  2480   001D76  6E2B               	movwf	(sprintf@f+10)^0,c
  2481   001D78  0E21               	movlw	low sprintf@f
  2482   001D7A  6E18               	movwf	vfprintf@fp^0,c
  2483   001D7C  C01D  F019         	movff	sprintf@fmt,vfprintf@fmt
  2484   001D80  0E20               	movlw	low sprintf@ap
  2485   001D82  6E1A               	movwf	vfprintf@ap^0,c
  2486   001D84  EC77  F00E         	call	_vfprintf	;wreg free
  2487   001D88  501C               	movf	sprintf@s^0,w,c
  2488   001D8A  2424               	addwf	(sprintf@f+3)^0,w,c
  2489   001D8C  6ED9               	movwf	fsr2l,c
  2490   001D8E  6ADA               	clrf	fsr2h,c
  2491   001D90  6ADF               	clrf	indf2,c
  2492   001D92  0012               	return		;funcret
  2493   001D94                     __end_of_sprintf:
  2494                           	callstack 0
  2495                           
  2496 ;; *************** function _vfprintf *****************
  2497 ;; Defined at:
  2498 ;;		line 1817 in file "C:\Program Files\Microchip\xc8\v2.46\pic\sources\c99\common\doprnt.c"
  2499 ;; Parameters:    Size  Location     Type
  2500 ;;  fp              1   23[COMRAM] PTR struct _IO_FILE
  2501 ;;		 -> sprintf@f(12), 
  2502 ;;  fmt             1   24[COMRAM] PTR const unsigned char 
  2503 ;;		 -> STR_9(3), STR_8(3), 
  2504 ;;  ap              1   25[COMRAM] PTR PTR void 
  2505 ;;		 -> sprintf@ap(1), 
  2506 ;; Auto vars:     Size  Location     Type
  2507 ;;  cfmt            1   26[COMRAM] PTR unsigned char 
  2508 ;;		 -> STR_9(3), STR_8(3), 
  2509 ;; Return value:  Size  Location     Type
  2510 ;;                  2   23[COMRAM] int 
  2511 ;; Registers used:
  2512 ;;		wreg, fsr1l, fsr1h, fsr2l, fsr2h, status,2, status,0, tblptrl, tblptrh, tblptru, cstack
  2513 ;; Tracked objects:
  2514 ;;		On entry : 0/0
  2515 ;;		On exit  : 0/0
  2516 ;;		Unchanged: 0/0
  2517 ;; Data sizes:     COMRAM   BANK0   BANK1   BANK2   BANK3   BANK4   BANK5   BANK6   BANK7
  2518 ;;      Params:         3       0       0       0       0       0       0       0       0
  2519 ;;      Locals:         1       0       0       0       0       0       0       0       0
  2520 ;;      Temps:          0       0       0       0       0       0       0       0       0
  2521 ;;      Totals:         4       0       0       0       0       0       0       0       0
  2522 ;;Total ram usage:        4 bytes
  2523 ;; Hardware stack levels used: 1
  2524 ;; Hardware stack levels required when called: 3
  2525 ;; This function calls:
  2526 ;;		_vfpfcnvrt
  2527 ;; This function is called by:
  2528 ;;		_sprintf
  2529 ;; This function uses a non-reentrant model
  2530 ;;
  2531                           
  2532                           	psect	text12
  2533   001CEE                     __ptext12:
  2534                           	callstack 0
  2535   001CEE                     _vfprintf:
  2536                           	callstack 21
  2537   001CEE                     
  2538                           ;C:\Program Files\Microchip\xc8\v2.46\pic\sources\c99\common\doprnt.c: 1817: int vfprint
      +                          f(FILE *fp, const char *fmt, va_list ap);C:\Program Files\Microchip\xc8\v2.46\pic\source
      +                          s\c99\common\doprnt.c: 1818: {;C:\Program Files\Microchip\xc8\v2.46\pic\sources\c99\comm
      +                          on\doprnt.c: 1820:     char *cfmt;;C:\Program Files\Microchip\xc8\v2.46\pic\sources\c99\
      +                          common\doprnt.c: 1822:     cfmt = (char *)fmt;
  2539   001CEE  C019  F01B         	movff	vfprintf@fmt,vfprintf@cfmt
  2540                           
  2541                           ;C:\Program Files\Microchip\xc8\v2.46\pic\sources\c99\common\doprnt.c: 1826:     while (
      +                          *cfmt) {
  2542   001CF2  EF83  F00E         	goto	i2l1641
  2543   001CF6                     i2l1639:
  2544                           
  2545                           ;C:\Program Files\Microchip\xc8\v2.46\pic\sources\c99\common\doprnt.c: 1830:    vfpfcnvr
      +                          t(fp, &cfmt, ap);
  2546   001CF6  C018  F00B         	movff	vfprintf@fp,vfpfcnvrt@fp
  2547   001CFA  0E1B               	movlw	low vfprintf@cfmt
  2548   001CFC  6E0C               	movwf	vfpfcnvrt@fmt^0,c
  2549   001CFE  C01A  F00D         	movff	vfprintf@ap,vfpfcnvrt@ap
  2550   001D02  EC06  F00A         	call	_vfpfcnvrt	;wreg free
  2551   001D06                     i2l1641:
  2552                           
  2553                           ;C:\Program Files\Microchip\xc8\v2.46\pic\sources\c99\common\doprnt.c: 1826:     while (
      +                          *cfmt) {
  2554   001D06  C01B  FFF6         	movff	vfprintf@cfmt,tblptrl
  2555   001D0A                     	if	1	;There is more than 1 active tblptr byte
  2556   001D0A  0E10               	movlw	high __smallconst
  2557   001D0C  6EF7               	movwf	tblptrh,c
  2558   001D0E                     	endif
  2559   001D0E                     	if	0	;tblptru may be non-zero
  2560   001D0E                     	endif
  2561   001D0E                     	if	0	;tblptru may be non-zero
  2562   001D0E                     	endif
  2563   001D0E  0008               	tblrd		*
  2564   001D10  50F5               	movf	tablat,w,c
  2565   001D12  0900               	iorlw	0
  2566   001D14  A4D8               	btfss	status,2,c
  2567   001D16  EF8F  F00E         	goto	i2u113_41
  2568   001D1A  EF91  F00E         	goto	i2u113_40
  2569   001D1E                     i2u113_41:
  2570   001D1E  EF7B  F00E         	goto	i2l1639
  2571   001D22                     i2u113_40:
  2572   001D22                     
  2573                           ;C:\Program Files\Microchip\xc8\v2.46\pic\sources\c99\common\doprnt.c: 1835:  return 0;
  2574   001D22  0E00               	movlw	0
  2575   001D24  6E19               	movwf	(?_vfprintf+1)^0,c
  2576   001D26  0E00               	movlw	0
  2577   001D28  6E18               	movwf	?_vfprintf^0,c
  2578   001D2A  0012               	return		;funcret
  2579   001D2C                     __end_of_vfprintf:
  2580                           	callstack 0
  2581                           
  2582 ;; *************** function _vfpfcnvrt *****************
  2583 ;; Defined at:
  2584 ;;		line 1177 in file "C:\Program Files\Microchip\xc8\v2.46\pic\sources\c99\common\doprnt.c"
  2585 ;; Parameters:    Size  Location     Type
  2586 ;;  fp              1   10[COMRAM] PTR struct _IO_FILE
  2587 ;;		 -> sprintf@f(12), 
  2588 ;;  fmt             1   11[COMRAM] PTR PTR unsigned char 
  2589 ;;		 -> vfprintf@cfmt(1), 
  2590 ;;  ap              1   12[COMRAM] PTR PTR void 
  2591 ;;		 -> sprintf@ap(1), 
  2592 ;; Auto vars:     Size  Location     Type
  2593 ;;  cp              2   14[COMRAM] PTR unsigned char 
  2594 ;;		 -> ?_sprintf(2), STR_7(7), STR_6(16), STR_5(7), 
  2595 ;;		 -> STR_4(7), STR_3(7), STR_2(16), 
  2596 ;;  convarg         4   18[COMRAM] struct .
  2597 ;;  c               1   22[COMRAM] unsigned char 
  2598 ;;  cp              1   17[COMRAM] PTR unsigned char 
  2599 ;;		 -> STR_9(3), STR_8(3), 
  2600 ;;  done            1   16[COMRAM] _Bool 
  2601 ;; Return value:  Size  Location     Type
  2602 ;;                  1    wreg      void 
  2603 ;; Registers used:
  2604 ;;		wreg, fsr1l, fsr1h, fsr2l, fsr2h, status,2, status,0, tblptrl, tblptrh, tblptru, cstack
  2605 ;; Tracked objects:
  2606 ;;		On entry : 0/0
  2607 ;;		On exit  : 0/0
  2608 ;;		Unchanged: 0/0
  2609 ;; Data sizes:     COMRAM   BANK0   BANK1   BANK2   BANK3   BANK4   BANK5   BANK6   BANK7
  2610 ;;      Params:         3       0       0       0       0       0       0       0       0
  2611 ;;      Locals:         9       0       0       0       0       0       0       0       0
  2612 ;;      Temps:          1       0       0       0       0       0       0       0       0
  2613 ;;      Totals:        13       0       0       0       0       0       0       0       0
  2614 ;;Total ram usage:       13 bytes
  2615 ;; Hardware stack levels used: 1
  2616 ;; Hardware stack levels required when called: 2
  2617 ;; This function calls:
  2618 ;;		___awmod
  2619 ;;		_abs
  2620 ;;		_fputc
  2621 ;;		i2___awdiv
  2622 ;; This function is called by:
  2623 ;;		_vfprintf
  2624 ;; This function uses a non-reentrant model
  2625 ;;
  2626                           
  2627                           	psect	text13
  2628   00140C                     __ptext13:
  2629                           	callstack 0
  2630   00140C                     _vfpfcnvrt:
  2631                           	callstack 21
  2632   00140C                     
  2633                           ;C:\Program Files\Microchip\xc8\v2.46\pic\sources\c99\common\doprnt.c: 1177: vfpfcnvrt(F
      +                          ILE *fp, char *fmt[], va_list ap);C:\Program Files\Microchip\xc8\v2.46\pic\sources\c99\c
      +                          ommon\doprnt.c: 1178: {;C:\Program Files\Microchip\xc8\v2.46\pic\sources\c99\common\dopr
      +                          nt.c: 1179:     char c, *cp;;C:\Program Files\Microchip\xc8\v2.46\pic\sources\c99\common
      +                          \doprnt.c: 1180:     _Bool done;;C:\Program Files\Microchip\xc8\v2.46\pic\sources\c99\co
      +                          mmon\doprnt.c: 1188:  } convarg;;C:\Program Files\Microchip\xc8\v2.46\pic\sources\c99\co
      +                          mmon\doprnt.c: 1201:     if ((*fmt)[0] == '%') {
  2634   00140C  500C               	movf	vfpfcnvrt@fmt^0,w,c
  2635   00140E  6ED9               	movwf	fsr2l,c
  2636   001410  6ADA               	clrf	fsr2h,c
  2637   001412  CFDF FFF6          	movff	indf2,tblptrl
  2638   001416                     	if	1	;There is more than 1 active tblptr byte
  2639   001416  0E10               	movlw	high __smallconst
  2640   001418  6EF7               	movwf	tblptrh,c
  2641   00141A                     	endif
  2642   00141A                     	if	0	;tblptru may be non-zero
  2643   00141A                     	endif
  2644   00141A                     	if	0	;tblptru may be non-zero
  2645   00141A                     	endif
  2646   00141A  0008               	tblrd		*
  2647   00141C  50F5               	movf	tablat,w,c
  2648   00141E  0A25               	xorlw	37
  2649   001420  A4D8               	btfss	status,2,c
  2650   001422  EF15  F00A         	goto	i2u95_41
  2651   001426  EF17  F00A         	goto	i2u95_40
  2652   00142A                     i2u95_41:
  2653   00142A  EF7D  F00B         	goto	i2l1631
  2654   00142E                     i2u95_40:
  2655   00142E                     
  2656                           ;C:\Program Files\Microchip\xc8\v2.46\pic\sources\c99\common\doprnt.c: 1202:         ++*
      +                          fmt;
  2657   00142E  500C               	movf	vfpfcnvrt@fmt^0,w,c
  2658   001430  6ED9               	movwf	fsr2l,c
  2659   001432  6ADA               	clrf	fsr2h,c
  2660   001434  2ADF               	incf	indf2,f,c
  2661   001436                     
  2662                           ;C:\Program Files\Microchip\xc8\v2.46\pic\sources\c99\common\doprnt.c: 1204:         fla
      +                          gs = width = 0;
  2663   001436  0E00               	movlw	0
  2664   001438  6E57               	movwf	(_width+1)^0,c
  2665   00143A  0E00               	movlw	0
  2666   00143C  6E56               	movwf	_width^0,c
  2667   00143E  C056  F05E         	movff	_width,_flags
  2668   001442                     
  2669                           ;C:\Program Files\Microchip\xc8\v2.46\pic\sources\c99\common\doprnt.c: 1205:         pre
      +                          c = -1;
  2670   001442  6858               	setf	_prec^0,c
  2671   001444  6859               	setf	(_prec+1)^0,c
  2672   001446                     
  2673                           ;C:\Program Files\Microchip\xc8\v2.46\pic\sources\c99\common\doprnt.c: 1291:   cp = *fmt
      +                          ;
  2674   001446  500C               	movf	vfpfcnvrt@fmt^0,w,c
  2675   001448  6ED9               	movwf	fsr2l,c
  2676   00144A  6ADA               	clrf	fsr2h,c
  2677   00144C  50DF               	movf	indf2,w,c
  2678   00144E  6E12               	movwf	vfpfcnvrt@cp^0,c
  2679   001450                     
  2680                           ;C:\Program Files\Microchip\xc8\v2.46\pic\sources\c99\common\doprnt.c: 1361:   if (*cp =
      +                          = 'd' || *cp == 'i') {
  2681   001450  C012  FFF6         	movff	vfpfcnvrt@cp,tblptrl
  2682   001454                     	if	1	;There is more than 1 active tblptr byte
  2683   001454  0E10               	movlw	high __smallconst
  2684   001456  6EF7               	movwf	tblptrh,c
  2685   001458                     	endif
  2686   001458                     	if	0	;tblptru may be non-zero
  2687   001458                     	endif
  2688   001458                     	if	0	;tblptru may be non-zero
  2689   001458                     	endif
  2690   001458  0008               	tblrd		*
  2691   00145A  50F5               	movf	tablat,w,c
  2692   00145C  0A64               	xorlw	100
  2693   00145E  B4D8               	btfsc	status,2,c
  2694   001460  EF34  F00A         	goto	i2u96_41
  2695   001464  EF36  F00A         	goto	i2u96_40
  2696   001468                     i2u96_41:
  2697   001468  EF44  F00A         	goto	i2l1573
  2698   00146C                     i2u96_40:
  2699   00146C  C012  FFF6         	movff	vfpfcnvrt@cp,tblptrl
  2700   001470                     	if	1	;There is more than 1 active tblptr byte
  2701   001470  0E10               	movlw	high __smallconst
  2702   001472  6EF7               	movwf	tblptrh,c
  2703   001474                     	endif
  2704   001474                     	if	0	;tblptru may be non-zero
  2705   001474                     	endif
  2706   001474                     	if	0	;tblptru may be non-zero
  2707   001474                     	endif
  2708   001474  0008               	tblrd		*
  2709   001476  50F5               	movf	tablat,w,c
  2710   001478  0A69               	xorlw	105
  2711   00147A  A4D8               	btfss	status,2,c
  2712   00147C  EF42  F00A         	goto	i2u97_41
  2713   001480  EF44  F00A         	goto	i2u97_40
  2714   001484                     i2u97_41:
  2715   001484  EFD0  F00A         	goto	i2l1599
  2716   001488                     i2u97_40:
  2717   001488                     i2l1573:
  2718                           
  2719                           ;C:\Program Files\Microchip\xc8\v2.46\pic\sources\c99\common\doprnt.c: 1404:    convarg.
      +                          sint = (vfpf_sint_t)(int)(*(int *)__va_arg(*(int **)ap, (int)0));
  2720   001488  500D               	movf	vfpfcnvrt@ap^0,w,c
  2721   00148A  6ED9               	movwf	fsr2l,c
  2722   00148C  6ADA               	clrf	fsr2h,c
  2723   00148E  0E02               	movlw	2
  2724   001490  26DF               	addwf	indf2,f,c
  2725   001492  5CDF               	subwf	indf2,w,c
  2726   001494  6ED9               	movwf	fsr2l,c
  2727   001496  6ADA               	clrf	fsr2h,c
  2728   001498  CFDE F013          	movff	postinc2,vfpfcnvrt@convarg
  2729   00149C  CFDE F014          	movff	postinc2,vfpfcnvrt@convarg+1
  2730   0014A0                     
  2731                           ;C:\Program Files\Microchip\xc8\v2.46\pic\sources\c99\common\doprnt.c: 1406:    *fmt = c
      +                          p+1;
  2732   0014A0  500C               	movf	vfpfcnvrt@fmt^0,w,c
  2733   0014A2  6ED9               	movwf	fsr2l,c
  2734   0014A4  6ADA               	clrf	fsr2h,c
  2735   0014A6  2812               	incf	vfpfcnvrt@cp^0,w,c
  2736   0014A8  6EDF               	movwf	indf2,c
  2737   0014AA                     
  2738                           ;C:\Program Files\Microchip\xc8\v2.46\pic\sources\c99\common\doprnt.c: 1408:    c = size
      +                          of(dbuf);
  2739   0014AA  0E20               	movlw	32
  2740   0014AC  6E17               	movwf	vfpfcnvrt@c^0,c
  2741                           
  2742                           ;C:\Program Files\Microchip\xc8\v2.46\pic\sources\c99\common\doprnt.c: 1409:    done = c
      +                          onvarg.sint < 0;
  2743   0014AE  BE14               	btfsc	(vfpfcnvrt@convarg+1)^0,7,c
  2744   0014B0  EF5C  F00A         	goto	i2u98_41
  2745   0014B4  EF5F  F00A         	goto	i2u98_40
  2746   0014B8                     i2u98_41:
  2747   0014B8  0E01               	movlw	1
  2748   0014BA  EF60  F00A         	goto	i2u99_40
  2749   0014BE                     i2u98_40:
  2750   0014BE  0E00               	movlw	0
  2751   0014C0                     i2u99_40:
  2752   0014C0  6E11               	movwf	vfpfcnvrt@done^0,c
  2753   0014C2                     i2l1579:
  2754                           
  2755                           ;C:\Program Files\Microchip\xc8\v2.46\pic\sources\c99\common\doprnt.c: 1411:     dbuf[--
      +                          c] = abs(convarg.sint % 10) + '0';
  2756   0014C2  0617               	decf	vfpfcnvrt@c^0,f,c
  2757   0014C4  0E2E               	movlw	low _dbuf
  2758   0014C6  2417               	addwf	vfpfcnvrt@c^0,w,c
  2759   0014C8  6ED9               	movwf	fsr2l,c
  2760   0014CA  6ADA               	clrf	fsr2h,c
  2761   0014CC  0E01               	movlw	high _dbuf
  2762   0014CE  22DA               	addwfc	fsr2h,f,c
  2763   0014D0  C013  F001         	movff	vfpfcnvrt@convarg,___awmod@dividend
  2764   0014D4  C014  F002         	movff	vfpfcnvrt@convarg+1,___awmod@dividend+1
  2765   0014D8  0E00               	movlw	0
  2766   0014DA  6E04               	movwf	(___awmod@divisor+1)^0,c
  2767   0014DC  0E0A               	movlw	10
  2768   0014DE  6E03               	movwf	___awmod@divisor^0,c
  2769   0014E0  EC54  F00C         	call	___awmod	;wreg free
  2770   0014E4  C001  F007         	movff	?___awmod,abs@a
  2771   0014E8  C002  F008         	movff	?___awmod+1,abs@a+1
  2772   0014EC  ECCA  F00E         	call	_abs	;wreg free
  2773   0014F0  5007               	movf	?_abs^0,w,c
  2774   0014F2  0F30               	addlw	48
  2775   0014F4  6EDF               	movwf	indf2,c
  2776   0014F6                     
  2777                           ;C:\Program Files\Microchip\xc8\v2.46\pic\sources\c99\common\doprnt.c: 1412:     convarg
      +                          .sint /= 10;
  2778   0014F6  C013  F001         	movff	vfpfcnvrt@convarg,i2___awdiv@dividend
  2779   0014FA  C014  F002         	movff	vfpfcnvrt@convarg+1,i2___awdiv@dividend+1
  2780   0014FE  0E00               	movlw	0
  2781   001500  6E04               	movwf	(i2___awdiv@divisor+1)^0,c
  2782   001502  0E0A               	movlw	10
  2783   001504  6E03               	movwf	i2___awdiv@divisor^0,c
  2784   001506  ECF2  F00B         	call	i2___awdiv	;wreg free
  2785   00150A  C001  F013         	movff	?i2___awdiv,vfpfcnvrt@convarg
  2786   00150E  C002  F014         	movff	?i2___awdiv+1,vfpfcnvrt@convarg+1
  2787   001512                     
  2788                           ;C:\Program Files\Microchip\xc8\v2.46\pic\sources\c99\common\doprnt.c: 1416:    } while 
      +                          (convarg.sint != 0 && c != 0);
  2789   001512  5013               	movf	vfpfcnvrt@convarg^0,w,c
  2790   001514  1014               	iorwf	(vfpfcnvrt@convarg+1)^0,w,c
  2791   001516  B4D8               	btfsc	status,2,c
  2792   001518  EF90  F00A         	goto	i2u100_41
  2793   00151C  EF92  F00A         	goto	i2u100_40
  2794   001520                     i2u100_41:
  2795   001520  EF9A  F00A         	goto	i2l1587
  2796   001524                     i2u100_40:
  2797   001524  5017               	movf	vfpfcnvrt@c^0,w,c
  2798   001526  A4D8               	btfss	status,2,c
  2799   001528  EF98  F00A         	goto	i2u101_41
  2800   00152C  EF9A  F00A         	goto	i2u101_40
  2801   001530                     i2u101_41:
  2802   001530  EF61  F00A         	goto	i2l1579
  2803   001534                     i2u101_40:
  2804   001534                     i2l1587:
  2805                           
  2806                           ;C:\Program Files\Microchip\xc8\v2.46\pic\sources\c99\common\doprnt.c: 1417:    if (c !=
      +                           0 && done) {
  2807   001534  5017               	movf	vfpfcnvrt@c^0,w,c
  2808   001536  B4D8               	btfsc	status,2,c
  2809   001538  EFA0  F00A         	goto	i2u102_41
  2810   00153C  EFA2  F00A         	goto	i2u102_40
  2811   001540                     i2u102_41:
  2812   001540  EFC5  F00A         	goto	i2l1597
  2813   001544                     i2u102_40:
  2814   001544  5011               	movf	vfpfcnvrt@done^0,w,c
  2815   001546  B4D8               	btfsc	status,2,c
  2816   001548  EFA8  F00A         	goto	i2u103_41
  2817   00154C  EFAA  F00A         	goto	i2u103_40
  2818   001550                     i2u103_41:
  2819   001550  EFC5  F00A         	goto	i2l1597
  2820   001554                     i2u103_40:
  2821   001554                     
  2822                           ;C:\Program Files\Microchip\xc8\v2.46\pic\sources\c99\common\doprnt.c: 1418:     dbuf[--
      +                          c] = '-';
  2823   001554  0617               	decf	vfpfcnvrt@c^0,f,c
  2824   001556  0E2E               	movlw	low _dbuf
  2825   001558  2417               	addwf	vfpfcnvrt@c^0,w,c
  2826   00155A  6ED9               	movwf	fsr2l,c
  2827   00155C  6ADA               	clrf	fsr2h,c
  2828   00155E  0E01               	movlw	high _dbuf
  2829   001560  22DA               	addwfc	fsr2h,f,c
  2830   001562  0E2D               	movlw	45
  2831   001564  6EDF               	movwf	indf2,c
  2832   001566  EFC5  F00A         	goto	i2l1597
  2833   00156A                     i2l1593:
  2834                           
  2835                           ;C:\Program Files\Microchip\xc8\v2.46\pic\sources\c99\common\doprnt.c: 1424:     fputc(d
      +                          buf[c++], fp);
  2836   00156A  0E2E               	movlw	low _dbuf
  2837   00156C  2417               	addwf	vfpfcnvrt@c^0,w,c
  2838   00156E  6ED9               	movwf	fsr2l,c
  2839   001570  6ADA               	clrf	fsr2h,c
  2840   001572  0E01               	movlw	high _dbuf
  2841   001574  22DA               	addwfc	fsr2h,f,c
  2842   001576  50DF               	movf	indf2,w,c
  2843   001578  6E0E               	movwf	??_vfpfcnvrt^0,c
  2844   00157A  500E               	movf	??_vfpfcnvrt^0,w,c
  2845   00157C  6E01               	movwf	fputc@c^0,c
  2846   00157E  6A02               	clrf	(fputc@c+1)^0,c
  2847   001580  C00B  F003         	movff	vfpfcnvrt@fp,fputc@fp
  2848   001584  EC03  F00D         	call	_fputc	;wreg free
  2849   001588  2A17               	incf	vfpfcnvrt@c^0,f,c
  2850   00158A                     i2l1597:
  2851                           
  2852                           ;C:\Program Files\Microchip\xc8\v2.46\pic\sources\c99\common\doprnt.c: 1423:    while (c
      +                           != sizeof(dbuf)) {
  2853   00158A  0E20               	movlw	32
  2854   00158C  1817               	xorwf	vfpfcnvrt@c^0,w,c
  2855   00158E  A4D8               	btfss	status,2,c
  2856   001590  EFCC  F00A         	goto	i2u104_41
  2857   001594  EFCE  F00A         	goto	i2u104_40
  2858   001598                     i2u104_41:
  2859   001598  EFB5  F00A         	goto	i2l1593
  2860   00159C                     i2u104_40:
  2861   00159C  EF8E  F00B         	goto	i2l910
  2862   0015A0                     i2l1599:
  2863                           
  2864                           ;C:\Program Files\Microchip\xc8\v2.46\pic\sources\c99\common\doprnt.c: 1656:   done = 0;
  2865   0015A0  0E00               	movlw	0
  2866   0015A2  6E11               	movwf	vfpfcnvrt@done^0,c
  2867   0015A4                     
  2868                           ;C:\Program Files\Microchip\xc8\v2.46\pic\sources\c99\common\doprnt.c: 1657:   if ((*fmt
      +                          )[0] == 's') {
  2869   0015A4  500C               	movf	vfpfcnvrt@fmt^0,w,c
  2870   0015A6  6ED9               	movwf	fsr2l,c
  2871   0015A8  6ADA               	clrf	fsr2h,c
  2872   0015AA  CFDF FFF6          	movff	indf2,tblptrl
  2873   0015AE                     	if	1	;There is more than 1 active tblptr byte
  2874   0015AE  0E10               	movlw	high __smallconst
  2875   0015B0  6EF7               	movwf	tblptrh,c
  2876   0015B2                     	endif
  2877   0015B2                     	if	0	;tblptru may be non-zero
  2878   0015B2                     	endif
  2879   0015B2                     	if	0	;tblptru may be non-zero
  2880   0015B2                     	endif
  2881   0015B2  0008               	tblrd		*
  2882   0015B4  50F5               	movf	tablat,w,c
  2883   0015B6  0A73               	xorlw	115
  2884   0015B8  A4D8               	btfss	status,2,c
  2885   0015BA  EFE1  F00A         	goto	i2u105_41
  2886   0015BE  EFE3  F00A         	goto	i2u105_40
  2887   0015C2                     i2u105_41:
  2888   0015C2  EFEB  F00A         	goto	i2l1607
  2889   0015C6                     i2u105_40:
  2890   0015C6                     
  2891                           ;C:\Program Files\Microchip\xc8\v2.46\pic\sources\c99\common\doprnt.c: 1658:    ++*fmt;
  2892   0015C6  500C               	movf	vfpfcnvrt@fmt^0,w,c
  2893   0015C8  6ED9               	movwf	fsr2l,c
  2894   0015CA  6ADA               	clrf	fsr2h,c
  2895   0015CC  2ADF               	incf	indf2,f,c
  2896   0015CE                     i2l1605:
  2897                           
  2898                           ;C:\Program Files\Microchip\xc8\v2.46\pic\sources\c99\common\doprnt.c: 1659:    done = 1
      +                          ;
  2899   0015CE  0E01               	movlw	1
  2900   0015D0  6E11               	movwf	vfpfcnvrt@done^0,c
  2901                           
  2902                           ;C:\Program Files\Microchip\xc8\v2.46\pic\sources\c99\common\doprnt.c: 1660:   }
  2903   0015D2  EF2D  F00B         	goto	i2l1617
  2904   0015D6                     i2l1607:
  2905   0015D6  500C               	movf	vfpfcnvrt@fmt^0,w,c
  2906   0015D8  6ED9               	movwf	fsr2l,c
  2907   0015DA  6ADA               	clrf	fsr2h,c
  2908   0015DC  CFDF FFF6          	movff	indf2,tblptrl
  2909   0015E0                     	if	1	;There is more than 1 active tblptr byte
  2910   0015E0  0E10               	movlw	high __smallconst
  2911   0015E2  6EF7               	movwf	tblptrh,c
  2912   0015E4                     	endif
  2913   0015E4                     	if	0	;tblptru may be non-zero
  2914   0015E4                     	endif
  2915   0015E4                     	if	0	;tblptru may be non-zero
  2916   0015E4                     	endif
  2917   0015E4  0008               	tblrd		*
  2918   0015E6  50F5               	movf	tablat,w,c
  2919   0015E8  0A6C               	xorlw	108
  2920   0015EA  A4D8               	btfss	status,2,c
  2921   0015EC  EFFA  F00A         	goto	i2u106_41
  2922   0015F0  EFFC  F00A         	goto	i2u106_40
  2923   0015F4                     i2u106_41:
  2924   0015F4  EF2D  F00B         	goto	i2l1617
  2925   0015F8                     i2u106_40:
  2926   0015F8  500C               	movf	vfpfcnvrt@fmt^0,w,c
  2927   0015FA  6ED9               	movwf	fsr2l,c
  2928   0015FC  6ADA               	clrf	fsr2h,c
  2929   0015FE  50DF               	movf	indf2,w,c
  2930   001600  6E0E               	movwf	??_vfpfcnvrt^0,c
  2931   001602  0E01               	movlw	1
  2932   001604  260E               	addwf	??_vfpfcnvrt^0,f,c
  2933   001606  C00E  FFF6         	movff	??_vfpfcnvrt,tblptrl
  2934   00160A                     	if	1	;There is more than 1 active tblptr byte
  2935   00160A  0E10               	movlw	high __smallconst
  2936   00160C  6EF7               	movwf	tblptrh,c
  2937   00160E                     	endif
  2938   00160E                     	if	0	;tblptru may be non-zero
  2939   00160E                     	endif
  2940   00160E                     	if	0	;tblptru may be non-zero
  2941   00160E                     	endif
  2942   00160E  0008               	tblrd		*
  2943   001610  50F5               	movf	tablat,w,c
  2944   001612  0A6C               	xorlw	108
  2945   001614  A4D8               	btfss	status,2,c
  2946   001616  EF0F  F00B         	goto	i2u107_41
  2947   00161A  EF11  F00B         	goto	i2u107_40
  2948   00161E                     i2u107_41:
  2949   00161E  EF2D  F00B         	goto	i2l1617
  2950   001622                     i2u107_40:
  2951   001622  500C               	movf	vfpfcnvrt@fmt^0,w,c
  2952   001624  6ED9               	movwf	fsr2l,c
  2953   001626  6ADA               	clrf	fsr2h,c
  2954   001628  50DF               	movf	indf2,w,c
  2955   00162A  6E0E               	movwf	??_vfpfcnvrt^0,c
  2956   00162C  0E02               	movlw	2
  2957   00162E  260E               	addwf	??_vfpfcnvrt^0,f,c
  2958   001630  C00E  FFF6         	movff	??_vfpfcnvrt,tblptrl
  2959   001634                     	if	1	;There is more than 1 active tblptr byte
  2960   001634  0E10               	movlw	high __smallconst
  2961   001636  6EF7               	movwf	tblptrh,c
  2962   001638                     	endif
  2963   001638                     	if	0	;tblptru may be non-zero
  2964   001638                     	endif
  2965   001638                     	if	0	;tblptru may be non-zero
  2966   001638                     	endif
  2967   001638  0008               	tblrd		*
  2968   00163A  50F5               	movf	tablat,w,c
  2969   00163C  0A73               	xorlw	115
  2970   00163E  A4D8               	btfss	status,2,c
  2971   001640  EF24  F00B         	goto	i2u108_41
  2972   001644  EF26  F00B         	goto	i2u108_40
  2973   001648                     i2u108_41:
  2974   001648  EF2D  F00B         	goto	i2l1617
  2975   00164C                     i2u108_40:
  2976   00164C                     
  2977                           ;C:\Program Files\Microchip\xc8\v2.46\pic\sources\c99\common\doprnt.c: 1662:    *fmt += 
      +                          3;
  2978   00164C  500C               	movf	vfpfcnvrt@fmt^0,w,c
  2979   00164E  6ED9               	movwf	fsr2l,c
  2980   001650  6ADA               	clrf	fsr2h,c
  2981   001652  0E03               	movlw	3
  2982   001654  26DF               	addwf	indf2,f,c
  2983   001656  EFE7  F00A         	goto	i2l1605
  2984   00165A                     i2l1617:
  2985                           
  2986                           ;C:\Program Files\Microchip\xc8\v2.46\pic\sources\c99\common\doprnt.c: 1665:   if (done)
      +                           {
  2987   00165A  5011               	movf	vfpfcnvrt@done^0,w,c
  2988   00165C  B4D8               	btfsc	status,2,c
  2989   00165E  EF33  F00B         	goto	i2u109_41
  2990   001662  EF35  F00B         	goto	i2u109_40
  2991   001666                     i2u109_41:
  2992   001666  EF77  F00B         	goto	i2l1627
  2993   00166A                     i2u109_40:
  2994   00166A                     
  2995                           ;C:\Program Files\Microchip\xc8\v2.46\pic\sources\c99\common\doprnt.c: 1669:    for (cha
      +                          r * cp = (*(char * *)__va_arg(*(char * **)ap, (char *)0)); *cp != '\0'; cp++) {
  2996   00166A  500D               	movf	vfpfcnvrt@ap^0,w,c
  2997   00166C  6ED9               	movwf	fsr2l,c
  2998   00166E  6ADA               	clrf	fsr2h,c
  2999   001670  0E02               	movlw	2
  3000   001672  26DF               	addwf	indf2,f,c
  3001   001674  5CDF               	subwf	indf2,w,c
  3002   001676  6ED9               	movwf	fsr2l,c
  3003   001678  6ADA               	clrf	fsr2h,c
  3004   00167A  CFDE F00F          	movff	postinc2,vfpfcnvrt@cp_1222
  3005   00167E  CFDE F010          	movff	postinc2,vfpfcnvrt@cp_1222+1
  3006   001682  EF5D  F00B         	goto	i2l1625
  3007   001686                     i2l1621:
  3008                           
  3009                           ;C:\Program Files\Microchip\xc8\v2.46\pic\sources\c99\common\doprnt.c: 1670:     fputc(*
      +                          cp, fp);
  3010   001686  C00F  FFF6         	movff	vfpfcnvrt@cp_1222,tblptrl
  3011   00168A  C010  FFF7         	movff	vfpfcnvrt@cp_1222+1,tblptrh
  3012   00168E  6AF8               	clrf	tblptru,c
  3013   001690  0E07               	movlw	(high __ramtop+-1)
  3014   001692  64F7               	cpfsgt	tblptrh,c
  3015   001694  D003               	bra	i2u110_47
  3016   001696  0008               	tblrd		*
  3017   001698  50F5               	movf	tablat,w,c
  3018   00169A  D005               	bra	i2u110_40
  3019   00169C                     i2u110_47:
  3020   00169C  CFF6 FFE1          	movff	tblptrl,fsr1l
  3021   0016A0  CFF7 FFE2          	movff	tblptrh,fsr1h
  3022   0016A4  50E7               	movf	indf1,w,c
  3023   0016A6                     i2u110_40:
  3024   0016A6  6E0E               	movwf	??_vfpfcnvrt^0,c
  3025   0016A8  500E               	movf	??_vfpfcnvrt^0,w,c
  3026   0016AA  6E01               	movwf	fputc@c^0,c
  3027   0016AC  6A02               	clrf	(fputc@c+1)^0,c
  3028   0016AE  C00B  F003         	movff	vfpfcnvrt@fp,fputc@fp
  3029   0016B2  EC03  F00D         	call	_fputc	;wreg free
  3030   0016B6                     
  3031                           ;C:\Program Files\Microchip\xc8\v2.46\pic\sources\c99\common\doprnt.c: 1674:    }
  3032   0016B6  4A0F               	infsnz	vfpfcnvrt@cp_1222^0,f,c
  3033   0016B8  2A10               	incf	(vfpfcnvrt@cp_1222+1)^0,f,c
  3034   0016BA                     i2l1625:
  3035   0016BA  C00F  FFF6         	movff	vfpfcnvrt@cp_1222,tblptrl
  3036   0016BE  C010  FFF7         	movff	vfpfcnvrt@cp_1222+1,tblptrh
  3037   0016C2  6AF8               	clrf	tblptru,c
  3038   0016C4  0E07               	movlw	(high __ramtop+-1)
  3039   0016C6  64F7               	cpfsgt	tblptrh,c
  3040   0016C8  D003               	bra	i2u111_47
  3041   0016CA  0008               	tblrd		*
  3042   0016CC  50F5               	movf	tablat,w,c
  3043   0016CE  D005               	bra	i2u111_40
  3044   0016D0                     i2u111_47:
  3045   0016D0  CFF6 FFE1          	movff	tblptrl,fsr1l
  3046   0016D4  CFF7 FFE2          	movff	tblptrh,fsr1h
  3047   0016D8  50E7               	movf	indf1,w,c
  3048   0016DA                     i2u111_40:
  3049   0016DA  0900               	iorlw	0
  3050   0016DC  A4D8               	btfss	status,2,c
  3051   0016DE  EF73  F00B         	goto	i2u112_41
  3052   0016E2  EF75  F00B         	goto	i2u112_40
  3053   0016E6                     i2u112_41:
  3054   0016E6  EF43  F00B         	goto	i2l1621
  3055   0016EA                     i2u112_40:
  3056   0016EA  EF8E  F00B         	goto	i2l910
  3057   0016EE                     i2l1627:
  3058                           
  3059                           ;C:\Program Files\Microchip\xc8\v2.46\pic\sources\c99\common\doprnt.c: 1806:         ++*
      +                          fmt;
  3060   0016EE  500C               	movf	vfpfcnvrt@fmt^0,w,c
  3061   0016F0  6ED9               	movwf	fsr2l,c
  3062   0016F2  6ADA               	clrf	fsr2h,c
  3063   0016F4  2ADF               	incf	indf2,f,c
  3064   0016F6  EF8E  F00B         	goto	i2l910
  3065   0016FA                     i2l1631:
  3066                           
  3067                           ;C:\Program Files\Microchip\xc8\v2.46\pic\sources\c99\common\doprnt.c: 1811:     fputc((
      +                          int)(*fmt)[0], fp);
  3068   0016FA  500C               	movf	vfpfcnvrt@fmt^0,w,c
  3069   0016FC  6ED9               	movwf	fsr2l,c
  3070   0016FE  6ADA               	clrf	fsr2h,c
  3071   001700  CFDF FFF6          	movff	indf2,tblptrl
  3072   001704                     	if	1	;There is more than 1 active tblptr byte
  3073   001704  0E10               	movlw	high __smallconst
  3074   001706  6EF7               	movwf	tblptrh,c
  3075   001708                     	endif
  3076   001708                     	if	0	;tblptru may be non-zero
  3077   001708                     	endif
  3078   001708                     	if	0	;tblptru may be non-zero
  3079   001708                     	endif
  3080   001708  0008               	tblrd		*
  3081   00170A  50F5               	movf	tablat,w,c
  3082   00170C  6E01               	movwf	fputc@c^0,c
  3083   00170E  6A02               	clrf	(fputc@c+1)^0,c
  3084   001710  C00B  F003         	movff	vfpfcnvrt@fp,fputc@fp
  3085   001714  EC03  F00D         	call	_fputc	;wreg free
  3086   001718  EF77  F00B         	goto	i2l1627
  3087   00171C                     i2l910:
  3088   00171C  0012               	return		;funcret
  3089   00171E                     __end_of_vfpfcnvrt:
  3090                           	callstack 0
  3091                           
  3092 ;; *************** function i2___awdiv *****************
  3093 ;; Defined at:
  3094 ;;		line 7 in file "C:\Program Files\Microchip\xc8\v2.46\pic\sources\c99\common\awdiv.c"
  3095 ;; Parameters:    Size  Location     Type
  3096 ;;  dividend        2    0[COMRAM] int 
  3097 ;;  divisor         2    2[COMRAM] int 
  3098 ;; Auto vars:     Size  Location     Type
  3099 ;;  quotient        2    6[COMRAM] int 
  3100 ;;  sign            1    5[COMRAM] unsigned char 
  3101 ;;  counter         1    4[COMRAM] unsigned char 
  3102 ;; Return value:  Size  Location     Type
  3103 ;;                  2    0[COMRAM] int 
  3104 ;; Registers used:
  3105 ;;		wreg, status,2, status,0
  3106 ;; Tracked objects:
  3107 ;;		On entry : 0/0
  3108 ;;		On exit  : 0/0
  3109 ;;		Unchanged: 0/0
  3110 ;; Data sizes:     COMRAM   BANK0   BANK1   BANK2   BANK3   BANK4   BANK5   BANK6   BANK7
  3111 ;;      Params:         4       0       0       0       0       0       0       0       0
  3112 ;;      Locals:         4       0       0       0       0       0       0       0       0
  3113 ;;      Temps:          0       0       0       0       0       0       0       0       0
  3114 ;;      Totals:         8       0       0       0       0       0       0       0       0
  3115 ;;Total ram usage:        8 bytes
  3116 ;; Hardware stack levels used: 1
  3117 ;; This function calls:
  3118 ;;		Nothing
  3119 ;; This function is called by:
  3120 ;;		_Envia_tiempo
  3121 ;;		_vfpfcnvrt
  3122 ;; This function uses a non-reentrant model
  3123 ;;
  3124                           
  3125                           	psect	text14
  3126   0017E4                     __ptext14:
  3127                           	callstack 0
  3128   0017E4                     i2___awdiv:
  3129                           	callstack 25
  3130   0017E4  0E00               	movlw	0
  3131   0017E6  6E06               	movwf	i2___awdiv@sign^0,c
  3132   0017E8  BE04               	btfsc	(i2___awdiv@divisor+1)^0,7,c
  3133   0017EA  EFFB  F00B         	goto	i2u89_40
  3134   0017EE  EFF9  F00B         	goto	i2u89_41
  3135   0017F2                     i2u89_41:
  3136   0017F2  EF01  F00C         	goto	i2l1523
  3137   0017F6                     i2u89_40:
  3138   0017F6  6C03               	negf	i2___awdiv@divisor^0,c
  3139   0017F8  1E04               	comf	(i2___awdiv@divisor+1)^0,f,c
  3140   0017FA  B0D8               	btfsc	status,0,c
  3141   0017FC  2A04               	incf	(i2___awdiv@divisor+1)^0,f,c
  3142   0017FE  0E01               	movlw	1
  3143   001800  6E06               	movwf	i2___awdiv@sign^0,c
  3144   001802                     i2l1523:
  3145   001802  BE02               	btfsc	(i2___awdiv@dividend+1)^0,7,c
  3146   001804  EF08  F00C         	goto	i2u90_40
  3147   001808  EF06  F00C         	goto	i2u90_41
  3148   00180C                     i2u90_41:
  3149   00180C  EF0E  F00C         	goto	i2l1529
  3150   001810                     i2u90_40:
  3151   001810  6C01               	negf	i2___awdiv@dividend^0,c
  3152   001812  1E02               	comf	(i2___awdiv@dividend+1)^0,f,c
  3153   001814  B0D8               	btfsc	status,0,c
  3154   001816  2A02               	incf	(i2___awdiv@dividend+1)^0,f,c
  3155   001818  0E01               	movlw	1
  3156   00181A  1A06               	xorwf	i2___awdiv@sign^0,f,c
  3157   00181C                     i2l1529:
  3158   00181C  0E00               	movlw	0
  3159   00181E  6E08               	movwf	(i2___awdiv@quotient+1)^0,c
  3160   001820  0E00               	movlw	0
  3161   001822  6E07               	movwf	i2___awdiv@quotient^0,c
  3162   001824  5003               	movf	i2___awdiv@divisor^0,w,c
  3163   001826  1004               	iorwf	(i2___awdiv@divisor+1)^0,w,c
  3164   001828  B4D8               	btfsc	status,2,c
  3165   00182A  EF19  F00C         	goto	i2u91_41
  3166   00182E  EF1B  F00C         	goto	i2u91_40
  3167   001832                     i2u91_41:
  3168   001832  EF43  F00C         	goto	i2l1551
  3169   001836                     i2u91_40:
  3170   001836  0E01               	movlw	1
  3171   001838  6E05               	movwf	i2___awdiv@counter^0,c
  3172   00183A  EF23  F00C         	goto	i2l1537
  3173   00183E                     i2l1535:
  3174   00183E  90D8               	bcf	status,0,c
  3175   001840  3603               	rlcf	i2___awdiv@divisor^0,f,c
  3176   001842  3604               	rlcf	(i2___awdiv@divisor+1)^0,f,c
  3177   001844  2A05               	incf	i2___awdiv@counter^0,f,c
  3178   001846                     i2l1537:
  3179   001846  AE04               	btfss	(i2___awdiv@divisor+1)^0,7,c
  3180   001848  EF28  F00C         	goto	i2u92_41
  3181   00184C  EF2A  F00C         	goto	i2u92_40
  3182   001850                     i2u92_41:
  3183   001850  EF1F  F00C         	goto	i2l1535
  3184   001854                     i2u92_40:
  3185   001854                     i2l1539:
  3186   001854  90D8               	bcf	status,0,c
  3187   001856  3607               	rlcf	i2___awdiv@quotient^0,f,c
  3188   001858  3608               	rlcf	(i2___awdiv@quotient+1)^0,f,c
  3189   00185A  5003               	movf	i2___awdiv@divisor^0,w,c
  3190   00185C  5C01               	subwf	i2___awdiv@dividend^0,w,c
  3191   00185E  5004               	movf	(i2___awdiv@divisor+1)^0,w,c
  3192   001860  5802               	subwfb	(i2___awdiv@dividend+1)^0,w,c
  3193   001862  A0D8               	btfss	status,0,c
  3194   001864  EF36  F00C         	goto	i2u93_41
  3195   001868  EF38  F00C         	goto	i2u93_40
  3196   00186C                     i2u93_41:
  3197   00186C  EF3D  F00C         	goto	i2l1547
  3198   001870                     i2u93_40:
  3199   001870  5003               	movf	i2___awdiv@divisor^0,w,c
  3200   001872  5E01               	subwf	i2___awdiv@dividend^0,f,c
  3201   001874  5004               	movf	(i2___awdiv@divisor+1)^0,w,c
  3202   001876  5A02               	subwfb	(i2___awdiv@dividend+1)^0,f,c
  3203   001878  8007               	bsf	i2___awdiv@quotient^0,0,c
  3204   00187A                     i2l1547:
  3205   00187A  90D8               	bcf	status,0,c
  3206   00187C  3204               	rrcf	(i2___awdiv@divisor+1)^0,f,c
  3207   00187E  3203               	rrcf	i2___awdiv@divisor^0,f,c
  3208   001880  2E05               	decfsz	i2___awdiv@counter^0,f,c
  3209   001882  EF2A  F00C         	goto	i2l1539
  3210   001886                     i2l1551:
  3211   001886  5006               	movf	i2___awdiv@sign^0,w,c
  3212   001888  B4D8               	btfsc	status,2,c
  3213   00188A  EF49  F00C         	goto	i2u94_41
  3214   00188E  EF4B  F00C         	goto	i2u94_40
  3215   001892                     i2u94_41:
  3216   001892  EF4F  F00C         	goto	i2l1555
  3217   001896                     i2u94_40:
  3218   001896  6C07               	negf	i2___awdiv@quotient^0,c
  3219   001898  1E08               	comf	(i2___awdiv@quotient+1)^0,f,c
  3220   00189A  B0D8               	btfsc	status,0,c
  3221   00189C  2A08               	incf	(i2___awdiv@quotient+1)^0,f,c
  3222   00189E                     i2l1555:
  3223   00189E  C007  F001         	movff	i2___awdiv@quotient,?i2___awdiv
  3224   0018A2  C008  F002         	movff	i2___awdiv@quotient+1,?i2___awdiv+1
  3225   0018A6  0012               	return		;funcret
  3226   0018A8                     __end_ofi2___awdiv:
  3227                           	callstack 0
  3228                           
  3229 ;; *************** function _fputc *****************
  3230 ;; Defined at:
  3231 ;;		line 8 in file "C:\Program Files\Microchip\xc8\v2.46\pic\sources\c99\common\nf_fputc.c"
  3232 ;; Parameters:    Size  Location     Type
  3233 ;;  c               2    0[COMRAM] int 
  3234 ;;  fp              1    2[COMRAM] PTR struct _IO_FILE
  3235 ;;		 -> sprintf@f(12), 
  3236 ;; Auto vars:     Size  Location     Type
  3237 ;;		None
  3238 ;; Return value:  Size  Location     Type
  3239 ;;                  2    0[COMRAM] int 
  3240 ;; Registers used:
  3241 ;;		wreg, fsr1l, fsr1h, fsr2l, fsr2h, status,2, status,0, cstack
  3242 ;; Tracked objects:
  3243 ;;		On entry : 0/0
  3244 ;;		On exit  : 0/0
  3245 ;;		Unchanged: 0/0
  3246 ;; Data sizes:     COMRAM   BANK0   BANK1   BANK2   BANK3   BANK4   BANK5   BANK6   BANK7
  3247 ;;      Params:         3       0       0       0       0       0       0       0       0
  3248 ;;      Locals:         0       0       0       0       0       0       0       0       0
  3249 ;;      Temps:          5       0       0       0       0       0       0       0       0
  3250 ;;      Totals:         8       0       0       0       0       0       0       0       0
  3251 ;;Total ram usage:        8 bytes
  3252 ;; Hardware stack levels used: 1
  3253 ;; Hardware stack levels required when called: 1
  3254 ;; This function calls:
  3255 ;;		_putch
  3256 ;; This function is called by:
  3257 ;;		_vfpfcnvrt
  3258 ;; This function uses a non-reentrant model
  3259 ;;
  3260                           
  3261                           	psect	text15
  3262   001A06                     __ptext15:
  3263                           	callstack 0
  3264   001A06                     _fputc:
  3265                           	callstack 21
  3266   001A06  5003               	movf	fputc@fp^0,w,c
  3267   001A08  B4D8               	btfsc	status,2,c
  3268   001A0A  EF09  F00D         	goto	i2u84_41
  3269   001A0E  EF0B  F00D         	goto	i2u84_40
  3270   001A12                     i2u84_41:
  3271   001A12  EF13  F00D         	goto	i2l1501
  3272   001A16                     i2u84_40:
  3273   001A16  5003               	movf	fputc@fp^0,w,c
  3274   001A18  A4D8               	btfss	status,2,c
  3275   001A1A  EF11  F00D         	goto	i2u85_41
  3276   001A1E  EF13  F00D         	goto	i2u85_40
  3277   001A22                     i2u85_41:
  3278   001A22  EF18  F00D         	goto	i2l1503
  3279   001A26                     i2u85_40:
  3280   001A26                     i2l1501:
  3281   001A26  5001               	movf	fputc@c^0,w,c
  3282   001A28  EC21  F00F         	call	_putch
  3283   001A2C  EF57  F00D         	goto	i2l942
  3284   001A30                     i2l1503:
  3285   001A30  5003               	movf	fputc@fp^0,w,c
  3286   001A32  6ED9               	movwf	fsr2l,c
  3287   001A34  6ADA               	clrf	fsr2h,c
  3288   001A36  0E0A               	movlw	10
  3289   001A38  26D9               	addwf	fsr2l,f,c
  3290   001A3A  50DE               	movf	postinc2,w,c
  3291   001A3C  10DE               	iorwf	postinc2,w,c
  3292   001A3E  B4D8               	btfsc	status,2,c
  3293   001A40  EF24  F00D         	goto	i2u86_41
  3294   001A44  EF26  F00D         	goto	i2u86_40
  3295   001A48                     i2u86_41:
  3296   001A48  EF3F  F00D         	goto	i2l1507
  3297   001A4C                     i2u86_40:
  3298   001A4C  5003               	movf	fputc@fp^0,w,c
  3299   001A4E  6ED9               	movwf	fsr2l,c
  3300   001A50  6ADA               	clrf	fsr2h,c
  3301   001A52  0E0A               	movlw	10
  3302   001A54  26D9               	addwf	fsr2l,f,c
  3303   001A56  5003               	movf	fputc@fp^0,w,c
  3304   001A58  6EE1               	movwf	fsr1l,c
  3305   001A5A  6AE2               	clrf	fsr1h,c
  3306   001A5C  0E03               	movlw	3
  3307   001A5E  26E1               	addwf	fsr1l,f,c
  3308   001A60  50DE               	movf	postinc2,w,c
  3309   001A62  5CE6               	subwf	postinc1,w,c
  3310   001A64  50E6               	movf	postinc1,w,c
  3311   001A66  0A80               	xorlw	128
  3312   001A68  6E08               	movwf	(??_fputc+4)^0,c
  3313   001A6A  50DE               	movf	postinc2,w,c
  3314   001A6C  0A80               	xorlw	128
  3315   001A6E  5808               	subwfb	(??_fputc+4)^0,w,c
  3316   001A70  B0D8               	btfsc	status,0,c
  3317   001A72  EF3D  F00D         	goto	i2u87_41
  3318   001A76  EF3F  F00D         	goto	i2u87_40
  3319   001A7A                     i2u87_41:
  3320   001A7A  EF57  F00D         	goto	i2l942
  3321   001A7E                     i2u87_40:
  3322   001A7E                     i2l1507:
  3323   001A7E  5003               	movf	fputc@fp^0,w,c
  3324   001A80  6ED9               	movwf	fsr2l,c
  3325   001A82  6ADA               	clrf	fsr2h,c
  3326   001A84  0E03               	movlw	3
  3327   001A86  26D9               	addwf	fsr2l,f,c
  3328   001A88  50DF               	movf	indf2,w,c
  3329   001A8A  6E04               	movwf	??_fputc^0,c
  3330   001A8C  5003               	movf	fputc@fp^0,w,c
  3331   001A8E  6ED9               	movwf	fsr2l,c
  3332   001A90  6ADA               	clrf	fsr2h,c
  3333   001A92  50DF               	movf	indf2,w,c
  3334   001A94  2404               	addwf	??_fputc^0,w,c
  3335   001A96  6ED9               	movwf	fsr2l,c
  3336   001A98  6ADA               	clrf	fsr2h,c
  3337   001A9A  C001  FFDF         	movff	fputc@c,indf2
  3338   001A9E  5003               	movf	fputc@fp^0,w,c
  3339   001AA0  6ED9               	movwf	fsr2l,c
  3340   001AA2  6ADA               	clrf	fsr2h,c
  3341   001AA4  0E03               	movlw	3
  3342   001AA6  26D9               	addwf	fsr2l,f,c
  3343   001AA8  2ADE               	incf	postinc2,f,c
  3344   001AAA  0E00               	movlw	0
  3345   001AAC  22DD               	addwfc	postdec2,f,c
  3346   001AAE                     i2l942:
  3347   001AAE  0012               	return		;funcret
  3348   001AB0                     __end_of_fputc:
  3349                           	callstack 0
  3350                           
  3351 ;; *************** function _putch *****************
  3352 ;; Defined at:
  3353 ;;		line 7 in file "C:\Program Files\Microchip\xc8\v2.46\pic\sources\c99\common\putch.c"
  3354 ;; Parameters:    Size  Location     Type
  3355 ;;  c               1    wreg     unsigned char 
  3356 ;; Auto vars:     Size  Location     Type
  3357 ;;  c               1    0[COMRAM] unsigned char 
  3358 ;; Return value:  Size  Location     Type
  3359 ;;                  1    wreg      void 
  3360 ;; Registers used:
  3361 ;;		wreg
  3362 ;; Tracked objects:
  3363 ;;		On entry : 0/0
  3364 ;;		On exit  : 0/0
  3365 ;;		Unchanged: 0/0
  3366 ;; Data sizes:     COMRAM   BANK0   BANK1   BANK2   BANK3   BANK4   BANK5   BANK6   BANK7
  3367 ;;      Params:         0       0       0       0       0       0       0       0       0
  3368 ;;      Locals:         0       0       0       0       0       0       0       0       0
  3369 ;;      Temps:          0       0       0       0       0       0       0       0       0
  3370 ;;      Totals:         0       0       0       0       0       0       0       0       0
  3371 ;;Total ram usage:        0 bytes
  3372 ;; Hardware stack levels used: 1
  3373 ;; This function calls:
  3374 ;;		Nothing
  3375 ;; This function is called by:
  3376 ;;		_fputc
  3377 ;; This function uses a non-reentrant model
  3378 ;;
  3379                           
  3380                           	psect	text16
  3381   001E42                     __ptext16:
  3382                           	callstack 0
  3383   001E42                     _putch:
  3384                           	callstack 21
  3385   001E42  0012               	return		;funcret
  3386   001E44                     __end_of_putch:
  3387                           	callstack 0
  3388                           
  3389 ;; *************** function _abs *****************
  3390 ;; Defined at:
  3391 ;;		line 1 in file "C:\Program Files\Microchip\xc8\v2.46\pic\sources\c99\common\abs.c"
  3392 ;; Parameters:    Size  Location     Type
  3393 ;;  a               2    6[COMRAM] int 
  3394 ;; Auto vars:     Size  Location     Type
  3395 ;;		None
  3396 ;; Return value:  Size  Location     Type
  3397 ;;                  2    6[COMRAM] int 
  3398 ;; Registers used:
  3399 ;;		wreg, status,2, status,0
  3400 ;; Tracked objects:
  3401 ;;		On entry : 0/0
  3402 ;;		On exit  : 0/0
  3403 ;;		Unchanged: 0/0
  3404 ;; Data sizes:     COMRAM   BANK0   BANK1   BANK2   BANK3   BANK4   BANK5   BANK6   BANK7
  3405 ;;      Params:         2       0       0       0       0       0       0       0       0
  3406 ;;      Locals:         0       0       0       0       0       0       0       0       0
  3407 ;;      Temps:          2       0       0       0       0       0       0       0       0
  3408 ;;      Totals:         4       0       0       0       0       0       0       0       0
  3409 ;;Total ram usage:        4 bytes
  3410 ;; Hardware stack levels used: 1
  3411 ;; This function calls:
  3412 ;;		Nothing
  3413 ;; This function is called by:
  3414 ;;		_vfpfcnvrt
  3415 ;; This function uses a non-reentrant model
  3416 ;;
  3417                           
  3418                           	psect	text17
  3419   001D94                     __ptext17:
  3420                           	callstack 0
  3421   001D94                     _abs:
  3422                           	callstack 22
  3423   001D94  BE08               	btfsc	(abs@a+1)^0,7,c
  3424   001D96  EFCF  F00E         	goto	i2u88_41
  3425   001D9A  EFD1  F00E         	goto	i2u88_40
  3426   001D9E                     i2u88_41:
  3427   001D9E  EFD7  F00E         	goto	i2l927
  3428   001DA2                     i2u88_40:
  3429   001DA2  C007  F007         	movff	abs@a,?_abs
  3430   001DA6  C008  F008         	movff	abs@a+1,?_abs+1
  3431   001DAA  EFE3  F00E         	goto	i2l930
  3432   001DAE                     i2l927:
  3433   001DAE  C007  F009         	movff	abs@a,??_abs
  3434   001DB2  C008  F00A         	movff	abs@a+1,??_abs+1
  3435   001DB6  1E09               	comf	??_abs^0,f,c
  3436   001DB8  1E0A               	comf	(??_abs+1)^0,f,c
  3437   001DBA  4A09               	infsnz	??_abs^0,f,c
  3438   001DBC  2A0A               	incf	(??_abs+1)^0,f,c
  3439   001DBE  C009  F007         	movff	??_abs,?_abs
  3440   001DC2  C00A  F008         	movff	??_abs+1,?_abs+1
  3441   001DC6                     i2l930:
  3442   001DC6  0012               	return		;funcret
  3443   001DC8                     __end_of_abs:
  3444                           	callstack 0
  3445                           
  3446 ;; *************** function ___awmod *****************
  3447 ;; Defined at:
  3448 ;;		line 7 in file "C:\Program Files\Microchip\xc8\v2.46\pic\sources\c99\common\awmod.c"
  3449 ;; Parameters:    Size  Location     Type
  3450 ;;  dividend        2    0[COMRAM] int 
  3451 ;;  divisor         2    2[COMRAM] int 
  3452 ;; Auto vars:     Size  Location     Type
  3453 ;;  sign            1    5[COMRAM] unsigned char 
  3454 ;;  counter         1    4[COMRAM] unsigned char 
  3455 ;; Return value:  Size  Location     Type
  3456 ;;                  2    0[COMRAM] int 
  3457 ;; Registers used:
  3458 ;;		wreg, status,2, status,0
  3459 ;; Tracked objects:
  3460 ;;		On entry : 0/0
  3461 ;;		On exit  : 0/0
  3462 ;;		Unchanged: 0/0
  3463 ;; Data sizes:     COMRAM   BANK0   BANK1   BANK2   BANK3   BANK4   BANK5   BANK6   BANK7
  3464 ;;      Params:         4       0       0       0       0       0       0       0       0
  3465 ;;      Locals:         2       0       0       0       0       0       0       0       0
  3466 ;;      Temps:          0       0       0       0       0       0       0       0       0
  3467 ;;      Totals:         6       0       0       0       0       0       0       0       0
  3468 ;;Total ram usage:        6 bytes
  3469 ;; Hardware stack levels used: 1
  3470 ;; This function calls:
  3471 ;;		Nothing
  3472 ;; This function is called by:
  3473 ;;		_vfpfcnvrt
  3474 ;; This function uses a non-reentrant model
  3475 ;;
  3476                           
  3477                           	psect	text18
  3478   0018A8                     __ptext18:
  3479                           	callstack 0
  3480   0018A8                     ___awmod:
  3481                           	callstack 22
  3482   0018A8  0E00               	movlw	0
  3483   0018AA  6E06               	movwf	___awmod@sign^0,c
  3484   0018AC  BE02               	btfsc	(___awmod@dividend+1)^0,7,c
  3485   0018AE  EF5D  F00C         	goto	i2u78_40
  3486   0018B2  EF5B  F00C         	goto	i2u78_41
  3487   0018B6                     i2u78_41:
  3488   0018B6  EF63  F00C         	goto	i2l1469
  3489   0018BA                     i2u78_40:
  3490   0018BA  6C01               	negf	___awmod@dividend^0,c
  3491   0018BC  1E02               	comf	(___awmod@dividend+1)^0,f,c
  3492   0018BE  B0D8               	btfsc	status,0,c
  3493   0018C0  2A02               	incf	(___awmod@dividend+1)^0,f,c
  3494   0018C2  0E01               	movlw	1
  3495   0018C4  6E06               	movwf	___awmod@sign^0,c
  3496   0018C6                     i2l1469:
  3497   0018C6  BE04               	btfsc	(___awmod@divisor+1)^0,7,c
  3498   0018C8  EF6A  F00C         	goto	i2u79_40
  3499   0018CC  EF68  F00C         	goto	i2u79_41
  3500   0018D0                     i2u79_41:
  3501   0018D0  EF6E  F00C         	goto	i2l1473
  3502   0018D4                     i2u79_40:
  3503   0018D4  6C03               	negf	___awmod@divisor^0,c
  3504   0018D6  1E04               	comf	(___awmod@divisor+1)^0,f,c
  3505   0018D8  B0D8               	btfsc	status,0,c
  3506   0018DA  2A04               	incf	(___awmod@divisor+1)^0,f,c
  3507   0018DC                     i2l1473:
  3508   0018DC  5003               	movf	___awmod@divisor^0,w,c
  3509   0018DE  1004               	iorwf	(___awmod@divisor+1)^0,w,c
  3510   0018E0  B4D8               	btfsc	status,2,c
  3511   0018E2  EF75  F00C         	goto	i2u80_41
  3512   0018E6  EF77  F00C         	goto	i2u80_40
  3513   0018EA                     i2u80_41:
  3514   0018EA  EF9B  F00C         	goto	i2l1489
  3515   0018EE                     i2u80_40:
  3516   0018EE  0E01               	movlw	1
  3517   0018F0  6E05               	movwf	___awmod@counter^0,c
  3518   0018F2  EF7F  F00C         	goto	i2l1479
  3519   0018F6                     i2l1477:
  3520   0018F6  90D8               	bcf	status,0,c
  3521   0018F8  3603               	rlcf	___awmod@divisor^0,f,c
  3522   0018FA  3604               	rlcf	(___awmod@divisor+1)^0,f,c
  3523   0018FC  2A05               	incf	___awmod@counter^0,f,c
  3524   0018FE                     i2l1479:
  3525   0018FE  AE04               	btfss	(___awmod@divisor+1)^0,7,c
  3526   001900  EF84  F00C         	goto	i2u81_41
  3527   001904  EF86  F00C         	goto	i2u81_40
  3528   001908                     i2u81_41:
  3529   001908  EF7B  F00C         	goto	i2l1477
  3530   00190C                     i2u81_40:
  3531   00190C                     i2l1481:
  3532   00190C  5003               	movf	___awmod@divisor^0,w,c
  3533   00190E  5C01               	subwf	___awmod@dividend^0,w,c
  3534   001910  5004               	movf	(___awmod@divisor+1)^0,w,c
  3535   001912  5802               	subwfb	(___awmod@dividend+1)^0,w,c
  3536   001914  A0D8               	btfss	status,0,c
  3537   001916  EF8F  F00C         	goto	i2u82_41
  3538   00191A  EF91  F00C         	goto	i2u82_40
  3539   00191E                     i2u82_41:
  3540   00191E  EF95  F00C         	goto	i2l1485
  3541   001922                     i2u82_40:
  3542   001922  5003               	movf	___awmod@divisor^0,w,c
  3543   001924  5E01               	subwf	___awmod@dividend^0,f,c
  3544   001926  5004               	movf	(___awmod@divisor+1)^0,w,c
  3545   001928  5A02               	subwfb	(___awmod@dividend+1)^0,f,c
  3546   00192A                     i2l1485:
  3547   00192A  90D8               	bcf	status,0,c
  3548   00192C  3204               	rrcf	(___awmod@divisor+1)^0,f,c
  3549   00192E  3203               	rrcf	___awmod@divisor^0,f,c
  3550   001930  2E05               	decfsz	___awmod@counter^0,f,c
  3551   001932  EF86  F00C         	goto	i2l1481
  3552   001936                     i2l1489:
  3553   001936  5006               	movf	___awmod@sign^0,w,c
  3554   001938  B4D8               	btfsc	status,2,c
  3555   00193A  EFA1  F00C         	goto	i2u83_41
  3556   00193E  EFA3  F00C         	goto	i2u83_40
  3557   001942                     i2u83_41:
  3558   001942  EFA7  F00C         	goto	i2l1493
  3559   001946                     i2u83_40:
  3560   001946  6C01               	negf	___awmod@dividend^0,c
  3561   001948  1E02               	comf	(___awmod@dividend+1)^0,f,c
  3562   00194A  B0D8               	btfsc	status,0,c
  3563   00194C  2A02               	incf	(___awmod@dividend+1)^0,f,c
  3564   00194E                     i2l1493:
  3565   00194E  C001  F001         	movff	___awmod@dividend,?___awmod
  3566   001952  C002  F002         	movff	___awmod@dividend+1,?___awmod+1
  3567   001956  0012               	return		;funcret
  3568   001958                     __end_of___awmod:
  3569                           	callstack 0
  3570                           
  3571                           	psect	rparam
  3572   000000                     
  3573                           	psect	temp
  3574   00005F                     btemp:
  3575                           	callstack 0
  3576   00005F                     	ds	1
  3577   000000                     int$flags	set	btemp
  3578   000000                     wtemp8	set	btemp+1
  3579   000000                     ttemp5	set	btemp+1
  3580   000000                     ttemp6	set	btemp+4
  3581   000000                     ttemp7	set	btemp+8
  3582                           
  3583                           	psect	idloc
  3584                           
  3585                           ;Config register IDLOC0 @ 0x200000
  3586                           ;	unspecified, using default values
  3587   200000                     	org	2097152
  3588   200000  FF                 	db	255
  3589                           
  3590                           ;Config register IDLOC1 @ 0x200001
  3591                           ;	unspecified, using default values
  3592   200001                     	org	2097153
  3593   200001  FF                 	db	255
  3594                           
  3595                           ;Config register IDLOC2 @ 0x200002
  3596                           ;	unspecified, using default values
  3597   200002                     	org	2097154
  3598   200002  FF                 	db	255
  3599                           
  3600                           ;Config register IDLOC3 @ 0x200003
  3601                           ;	unspecified, using default values
  3602   200003                     	org	2097155
  3603   200003  FF                 	db	255
  3604                           
  3605                           ;Config register IDLOC4 @ 0x200004
  3606                           ;	unspecified, using default values
  3607   200004                     	org	2097156
  3608   200004  FF                 	db	255
  3609                           
  3610                           ;Config register IDLOC5 @ 0x200005
  3611                           ;	unspecified, using default values
  3612   200005                     	org	2097157
  3613   200005  FF                 	db	255
  3614                           
  3615                           ;Config register IDLOC6 @ 0x200006
  3616                           ;	unspecified, using default values
  3617   200006                     	org	2097158
  3618   200006  FF                 	db	255
  3619                           
  3620                           ;Config register IDLOC7 @ 0x200007
  3621                           ;	unspecified, using default values
  3622   200007                     	org	2097159
  3623   200007  FF                 	db	255
  3624                           
  3625                           	psect	config
  3626                           
  3627                           ;Config register CONFIG1L @ 0x300000
  3628                           ;	unspecified, using default values
  3629                           ;	PLL Selection
  3630                           ;	PLLSEL = 0x0, unprogrammed default
  3631                           ;	PLL Enable Configuration bit
  3632                           ;	CFGPLLEN = 0x0, unprogrammed default
  3633                           ;	CPU System Clock Postscaler
  3634                           ;	CPUDIV = 0x0, unprogrammed default
  3635                           ;	Low Speed USB mode with 48 MHz system clock
  3636                           ;	LS48MHZ = 0x0, unprogrammed default
  3637   300000                     	org	3145728
  3638   300000  00                 	db	0
  3639                           
  3640                           ;Config register CONFIG1H @ 0x300001
  3641                           ;	unspecified, using default values
  3642                           ;	Oscillator Selection
  3643                           ;	FOSC = 0x5, unprogrammed default
  3644                           ;	Primary Oscillator Shutdown
  3645                           ;	PCLKEN = 0x1, unprogrammed default
  3646                           ;	Fail-Safe Clock Monitor
  3647                           ;	FCMEN = 0x0, unprogrammed default
  3648                           ;	Internal/External Oscillator Switchover
  3649                           ;	IESO = 0x0, unprogrammed default
  3650   300001                     	org	3145729
  3651   300001  25                 	db	37
  3652                           
  3653                           ;Config register CONFIG2L @ 0x300002
  3654                           ;	unspecified, using default values
  3655                           ;	Power-up Timer Enable
  3656                           ;	nPWRTEN = 0x1, unprogrammed default
  3657                           ;	Brown-out Reset Enable
  3658                           ;	BOREN = 0x3, unprogrammed default
  3659                           ;	Brown-out Reset Voltage
  3660                           ;	BORV = 0x3, unprogrammed default
  3661                           ;	Low-Power Brown-out Reset
  3662                           ;	nLPBOR = 0x1, unprogrammed default
  3663   300002                     	org	3145730
  3664   300002  5F                 	db	95
  3665                           
  3666                           ;Config register CONFIG2H @ 0x300003
  3667                           ;	unspecified, using default values
  3668                           ;	Watchdog Timer Enable bits
  3669                           ;	WDTEN = 0x3, unprogrammed default
  3670                           ;	Watchdog Timer Postscaler
  3671                           ;	WDTPS = 0xF, unprogrammed default
  3672   300003                     	org	3145731
  3673   300003  3F                 	db	63
  3674                           
  3675                           ; Padding undefined space
  3676   300004                     	org	3145732
  3677   300004  FF                 	db	255
  3678                           
  3679                           ;Config register CONFIG3H @ 0x300005
  3680                           ;	unspecified, using default values
  3681                           ;	CCP2 MUX bit
  3682                           ;	CCP2MX = 0x1, unprogrammed default
  3683                           ;	PORTB A/D Enable bit
  3684                           ;	PBADEN = 0x1, unprogrammed default
  3685                           ;	Timer3 Clock Input MUX bit
  3686                           ;	T3CMX = 0x1, unprogrammed default
  3687                           ;	SDO Output MUX bit
  3688                           ;	SDOMX = 0x1, unprogrammed default
  3689                           ;	Master Clear Reset Pin Enable
  3690                           ;	MCLRE = 0x1, unprogrammed default
  3691   300005                     	org	3145733
  3692   300005  D3                 	db	211
  3693                           
  3694                           ;Config register CONFIG4L @ 0x300006
  3695                           ;	unspecified, using default values
  3696                           ;	Stack Full/Underflow Reset
  3697                           ;	STVREN = 0x1, unprogrammed default
  3698                           ;	Single-Supply ICSP Enable bit
  3699                           ;	LVP = 0x1, unprogrammed default
  3700                           ;	Dedicated In-Circuit Debug/Programming Port Enable
  3701                           ;	ICPRT = 0x0, unprogrammed default
  3702                           ;	Extended Instruction Set Enable bit
  3703                           ;	XINST = 0x0, unprogrammed default
  3704                           ;	Background Debugger Enable bit
  3705                           ;	DEBUG = 0x1, unprogrammed default
  3706   300006                     	org	3145734
  3707   300006  85                 	db	133
  3708                           
  3709                           ; Padding undefined space
  3710   300007                     	org	3145735
  3711   300007  FF                 	db	255
  3712                           
  3713                           ;Config register CONFIG5L @ 0x300008
  3714                           ;	unspecified, using default values
  3715                           ;	Block 0 Code Protect
  3716                           ;	CP0 = 0x1, unprogrammed default
  3717                           ;	Block 1 Code Protect
  3718                           ;	CP1 = 0x1, unprogrammed default
  3719                           ;	Block 2 Code Protect
  3720                           ;	CP2 = 0x1, unprogrammed default
  3721                           ;	Block 3 Code Protect
  3722                           ;	CP3 = 0x1, unprogrammed default
  3723   300008                     	org	3145736
  3724   300008  0F                 	db	15
  3725                           
  3726                           ;Config register CONFIG5H @ 0x300009
  3727                           ;	unspecified, using default values
  3728                           ;	Boot Block Code Protect
  3729                           ;	CPB = 0x1, unprogrammed default
  3730                           ;	Data EEPROM Code Protect
  3731                           ;	CPD = 0x1, unprogrammed default
  3732   300009                     	org	3145737
  3733   300009  C0                 	db	192
  3734                           
  3735                           ;Config register CONFIG6L @ 0x30000A
  3736                           ;	unspecified, using default values
  3737                           ;	Block 0 Write Protect
  3738                           ;	WRT0 = 0x1, unprogrammed default
  3739                           ;	Block 1 Write Protect
  3740                           ;	WRT1 = 0x1, unprogrammed default
  3741                           ;	Block 2 Write Protect
  3742                           ;	WRT2 = 0x1, unprogrammed default
  3743                           ;	Block 3 Write Protect
  3744                           ;	WRT3 = 0x1, unprogrammed default
  3745   30000A                     	org	3145738
  3746   30000A  0F                 	db	15
  3747                           
  3748                           ;Config register CONFIG6H @ 0x30000B
  3749                           ;	unspecified, using default values
  3750                           ;	Configuration Registers Write Protect
  3751                           ;	WRTC = 0x1, unprogrammed default
  3752                           ;	Boot Block Write Protect
  3753                           ;	WRTB = 0x1, unprogrammed default
  3754                           ;	Data EEPROM Write Protect
  3755                           ;	WRTD = 0x1, unprogrammed default
  3756   30000B                     	org	3145739
  3757   30000B  E0                 	db	224
  3758                           
  3759                           ;Config register CONFIG7L @ 0x30000C
  3760                           ;	unspecified, using default values
  3761                           ;	Block 0 Table Read Protect
  3762                           ;	EBTR0 = 0x1, unprogrammed default
  3763                           ;	Block 1 Table Read Protect
  3764                           ;	EBTR1 = 0x1, unprogrammed default
  3765                           ;	Block 2 Table Read Protect
  3766                           ;	EBTR2 = 0x1, unprogrammed default
  3767                           ;	Block 3 Table Read Protect
  3768                           ;	EBTR3 = 0x1, unprogrammed default
  3769   30000C                     	org	3145740
  3770   30000C  0F                 	db	15
  3771                           
  3772                           ;Config register CONFIG7H @ 0x30000D
  3773                           ;	unspecified, using default values
  3774                           ;	Boot Block Table Read Protect
  3775                           ;	EBTRB = 0x1, unprogrammed default
  3776   30000D                     	org	3145741
  3777   30000D  40                 	db	64
  3778                           tosu	equ	0xFFF
  3779                           tosh	equ	0xFFE
  3780                           tosl	equ	0xFFD
  3781                           stkptr	equ	0xFFC
  3782                           pclatu	equ	0xFFB
  3783                           pclath	equ	0xFFA
  3784                           pcl	equ	0xFF9
  3785                           tblptru	equ	0xFF8
  3786                           tblptrh	equ	0xFF7
  3787                           tblptrl	equ	0xFF6
  3788                           tablat	equ	0xFF5
  3789                           prodh	equ	0xFF4
  3790                           prodl	equ	0xFF3
  3791                           indf0	equ	0xFEF
  3792                           postinc0	equ	0xFEE
  3793                           postdec0	equ	0xFED
  3794                           preinc0	equ	0xFEC
  3795                           plusw0	equ	0xFEB
  3796                           fsr0h	equ	0xFEA
  3797                           fsr0l	equ	0xFE9
  3798                           wreg	equ	0xFE8
  3799                           indf1	equ	0xFE7
  3800                           postinc1	equ	0xFE6
  3801                           postdec1	equ	0xFE5
  3802                           preinc1	equ	0xFE4
  3803                           plusw1	equ	0xFE3
  3804                           fsr1h	equ	0xFE2
  3805                           fsr1l	equ	0xFE1
  3806                           bsr	equ	0xFE0
  3807                           indf2	equ	0xFDF
  3808                           postinc2	equ	0xFDE
  3809                           postdec2	equ	0xFDD
  3810                           preinc2	equ	0xFDC
  3811                           plusw2	equ	0xFDB
  3812                           fsr2h	equ	0xFDA
  3813                           fsr2l	equ	0xFD9
  3814                           status	equ	0xFD8

Data Sizes:
    Strings     45
    Constant    0
    Data        83
    BSS         46
    Persistent  2
    Stack       0

Auto Spaces:
    Space          Size  Autos    Used
    COMRAM           94     85      94
    BANK0           160    104     143
    BANK1           256     23     106
    BANK2           256      0       0
    BANK3           256      0       0
    BANK4           256      0       0
    BANK5           256      0       0
    BANK6           256      0       0
    BANK7           256      0       0

Pointer List with Targets:

    Envia_cadena@texto	PTR const unsigned char  size(1) Largest target is 16
		 -> STR_2(CODE[16]), STR_3(CODE[7]), STR_4(CODE[7]), STR_5(CODE[7]), 
		 -> STR_6(CODE[16]), STR_7(CODE[7]), 

    Envia_text@texto	PTR unsigned char  size(2) Largest target is 19
		 -> error(BANK0[5]), listo(BANK1[19]), 

    f$.$buffer	PTR unsigned char  size(2) Largest target is 0

    f$.$source	PTR const unsigned char  size(2) Largest target is 0

    fputc@fp	PTR struct _IO_FILE size(1) Largest target is 12
		 -> sprintf@f(COMRAM[12]), 

    fputc@fp$.$buffer	PTR unsigned char  size(2) Largest target is 0

    fputc@fp$.$source	PTR const unsigned char  size(2) Largest target is 0

    hint@texto1	PTR unsigned char  size(1) Largest target is 7
		 -> STR_1(CODE[7]), 

    hint@texto2	PTR unsigned char  size(1) Largest target is 7
		 -> STR_3(CODE[7]), 

    hint@texto3	PTR unsigned char  size(1) Largest target is 7
		 -> STR_4(CODE[7]), 

    hint@texto4	PTR unsigned char  size(1) Largest target is 7
		 -> STR_5(CODE[7]), 

    hint@texto5	PTR unsigned char  size(1) Largest target is 16
		 -> STR_6(CODE[16]), 

    hint@texto6	PTR unsigned char  size(1) Largest target is 7
		 -> STR_7(CODE[7]), 

    hint@textot	PTR unsigned char  size(1) Largest target is 16
		 -> STR_2(CODE[16]), 

    S1140$buffer	PTR unsigned char  size(2) Largest target is 0

    S1140$source	PTR const unsigned char  size(2) Largest target is 0

    sprintf@ap	PTR void [1] size(1) Largest target is 2
		 -> ?_sprintf(COMRAM[2]), 

    sprintf@fmt	PTR const unsigned char  size(1) Largest target is 3
		 -> STR_8(CODE[3]), STR_9(CODE[3]), 

    sprintf@s	PTR unsigned char  size(1) Largest target is 100
		 -> Envia_cadena@buffer(BANK0[100]), Envia_tiempo@buffer(COMRAM[10]), 

    strlen@a	PTR const unsigned char  size(1) Largest target is 16
		 -> STR_2(CODE[16]), STR_3(CODE[7]), STR_4(CODE[7]), STR_5(CODE[7]), 
		 -> STR_6(CODE[16]), STR_7(CODE[7]), 

    strlen@s	PTR const unsigned char  size(1) Largest target is 16
		 -> STR_2(CODE[16]), STR_3(CODE[7]), STR_4(CODE[7]), STR_5(CODE[7]), 
		 -> STR_6(CODE[16]), STR_7(CODE[7]), 

    vfpfcnvrt@ap	PTR PTR void  size(1) Largest target is 1
		 -> sprintf@ap(COMRAM[1]), 

    vfpfcnvrt@cp	PTR unsigned char  size(1) Largest target is 3
		 -> STR_8(CODE[3]), STR_9(CODE[3]), 

    vfpfcnvrt@cp_1222	PTR unsigned char  size(2) Largest target is 16
		 -> ?_sprintf(COMRAM[2]), STR_2(CODE[16]), STR_3(CODE[7]), STR_4(CODE[7]), 
		 -> STR_5(CODE[7]), STR_6(CODE[16]), STR_7(CODE[7]), 

    vfpfcnvrt@fmt	PTR PTR unsigned char  size(1) Largest target is 1
		 -> vfprintf@cfmt(COMRAM[1]), 

    vfpfcnvrt@fp	PTR struct _IO_FILE size(1) Largest target is 12
		 -> sprintf@f(COMRAM[12]), 

    vfprintf@ap	PTR PTR void  size(1) Largest target is 1
		 -> sprintf@ap(COMRAM[1]), 

    vfprintf@cfmt	PTR unsigned char  size(1) Largest target is 3
		 -> STR_8(CODE[3]), STR_9(CODE[3]), 

    vfprintf@fmt	PTR const unsigned char  size(1) Largest target is 3
		 -> STR_8(CODE[3]), STR_9(CODE[3]), 

    vfprintf@fp	PTR struct _IO_FILE size(1) Largest target is 12
		 -> sprintf@f(COMRAM[12]), 


Critical Paths under _main in COMRAM

    None.

Critical Paths under _lint in COMRAM

    None.

Critical Paths under _hint in COMRAM

    _hint->_Envia_tiempo
    _Envia_tiempo->_sprintf
    _Envia_cadena->_sprintf
    _sprintf->_vfprintf
    _vfprintf->_vfpfcnvrt
    _vfpfcnvrt->_abs
    _abs->___awmod

Critical Paths under _main in BANK0

    None.

Critical Paths under _lint in BANK0

    None.

Critical Paths under _hint in BANK0

    _hint->_Envia_cadena

Critical Paths under _main in BANK1

    _main->_Envia_text

Critical Paths under _lint in BANK1

    _lint->___awdiv

Critical Paths under _hint in BANK1

    None.

Critical Paths under _main in BANK2

    None.

Critical Paths under _lint in BANK2

    None.

Critical Paths under _hint in BANK2

    None.

Critical Paths under _main in BANK3

    None.

Critical Paths under _lint in BANK3

    None.

Critical Paths under _hint in BANK3

    None.

Critical Paths under _main in BANK4

    None.

Critical Paths under _lint in BANK4

    None.

Critical Paths under _hint in BANK4

    None.

Critical Paths under _main in BANK5

    None.

Critical Paths under _lint in BANK5

    None.

Critical Paths under _hint in BANK5

    None.

Critical Paths under _main in BANK6

    None.

Critical Paths under _lint in BANK6

    None.

Critical Paths under _hint in BANK6

    None.

Critical Paths under _main in BANK7

    None.

Critical Paths under _lint in BANK7

    None.

Critical Paths under _hint in BANK7

    None.

Call Graph Tables:

 ---------------------------------------------------------------------------------
 (Depth) Function   	        Calls       Base Space   Used Autos Params    Refs
 ---------------------------------------------------------------------------------
 (0) _main                                                 5     0      5     420
                                             18 BANK1      5     0      5
                         _Envia_text
                             _config
 ---------------------------------------------------------------------------------
 (1) _config                                               0     0      0       0
 ---------------------------------------------------------------------------------
 (1) _Envia_text                                           7     3      4     420
                                             11 BANK1      7     3      4
 ---------------------------------------------------------------------------------
 Estimated maximum stack depth 1
 ---------------------------------------------------------------------------------
 (Depth) Function   	        Calls       Base Space   Used Autos Params    Refs
 ---------------------------------------------------------------------------------
 (2) _lint                                                 3     3      0     652
                                              8 BANK1      3     3      0
                            ___awdiv
 ---------------------------------------------------------------------------------
 (3) ___awdiv                                              8     4      4     652
                                              0 BANK1      8     4      4
 ---------------------------------------------------------------------------------
 Estimated maximum stack depth 3
 ---------------------------------------------------------------------------------
 (Depth) Function   	        Calls       Base Space   Used Autos Params    Refs
 ---------------------------------------------------------------------------------
 (4) _hint                                                23    23      0   10417
                                             63 COMRAM    22    22      0
                       _Envia_cadena
                       _Envia_tiempo
                             ___wmul
                       i2_Envia_text
 ---------------------------------------------------------------------------------
 (5) i2_Envia_text                                         7     3      4     200
                                              0 COMRAM     7     3      4
 ---------------------------------------------------------------------------------
 (5) ___wmul                                               6     2      4     463
                                              0 COMRAM     6     2      4
 ---------------------------------------------------------------------------------
 (5) _Envia_tiempo                                        19    17      2    4489
                                             44 COMRAM    19    17      2
                            _sprintf
                          i2___awdiv
 ---------------------------------------------------------------------------------
 (5) _Envia_cadena                                       105   104      1    4584
                                             44 COMRAM     1     0      1
                                              0 BANK0    104   104      0
                            _sprintf
                             _strlen
 ---------------------------------------------------------------------------------
 (6) _strlen                                               3     1      2     166
                                              0 COMRAM     3     1      2
 ---------------------------------------------------------------------------------
 (6) _sprintf                                             19    15      4    3800
                                             27 COMRAM    17    13      4
                           _vfprintf
 ---------------------------------------------------------------------------------
 (7) _vfprintf                                             4     1      3    3295
                                             23 COMRAM     4     1      3
                          _vfpfcnvrt
 ---------------------------------------------------------------------------------
 (8) _vfpfcnvrt                                           13    10      3    2937
                                             10 COMRAM    13    10      3
                            ___awmod
                                _abs
                              _fputc
                          i2___awdiv
 ---------------------------------------------------------------------------------
 (6) i2___awdiv                                            8     4      4     404
                                              0 COMRAM     8     4      4
 ---------------------------------------------------------------------------------
 (9) _fputc                                                8     5      3     934
                                              0 COMRAM     8     5      3
                              _putch
 ---------------------------------------------------------------------------------
 (10) _putch                                               1     1      0       0
 ---------------------------------------------------------------------------------
 (9) _abs                                                  4     2      2     142
                                              6 COMRAM     4     2      2
                            ___awmod (ARG)
 ---------------------------------------------------------------------------------
 (9) ___awmod                                              6     2      4     448
                                              0 COMRAM     6     2      4
 ---------------------------------------------------------------------------------
 Estimated maximum stack depth 10
 ---------------------------------------------------------------------------------

 Call Graph Graphs:

 _main (ROOT)
   _Envia_text
   _config

 _lint (ROOT)
   ___awdiv

 _hint (ROOT)
   _Envia_cadena
     _sprintf
       _vfprintf
         _vfpfcnvrt
           ___awmod
           _abs
             ___awmod (ARG)
           _fputc
             _putch
           i2___awdiv
     _strlen
   _Envia_tiempo
     _sprintf
     i2___awdiv
   ___wmul
   i2_Envia_text

 Address spaces:
Name               Size   Autos  Total    Cost      Usage
BIGRAM             7FF      0       0      33        0.0%
EEDATA             100      0       0       0        0.0%
BITBANK7           100      0       0      18        0.0%
BANK7              100      0       0      19        0.0%
BITBANK6           100      0       0      16        0.0%
BANK6              100      0       0      17        0.0%
BITBANK5           100      0       0      14        0.0%
BANK5              100      0       0      15        0.0%
BITBANK4           100      0       0      12        0.0%
BANK4              100      0       0      13        0.0%
BITBANK3           100      0       0      10        0.0%
BANK3              100      0       0      11        0.0%
BITBANK2           100      0       0       8        0.0%
BANK2              100      0       0       9        0.0%
BITBANK1           100      0       0       6        0.0%
BANK1              100     17      6A       7       41.4%
BITBANK0            A0      0       0       4        0.0%
BANK0               A0     68      8F       5       89.4%
BITCOMRAM           5E      0       0       0        0.0%
COMRAM              5E     55      5E       1      100.0%
BITBIGSFRllh        29      0       0      30        0.0%
BITBIGSFRhhlh       19      0       0      21        0.0%
BITBIGSFRhhllll     17      0       0      24        0.0%
BITBIGSFRhhh         D      0       0      20        0.0%
BITBIGSFRhll         C      0       0      26        0.0%
BITBIGSFRlhll        8      0       0      29        0.0%
BITBIGSFRlll         8      0       0      31        0.0%
BITBIGSFRhhllll      7      0       0      25        0.0%
BITBIGSFRlhlh        4      0       0      28        0.0%
BITBIGSFRlhh         2      0       0      27        0.0%
BITBIGSFRhhlllh      1      0       0      23        0.0%
BITBIGSFRhhllh       1      0       0      22        0.0%
BIGSFR               0      0       0     200        0.0%
BITSFR_1             0      0       0     200        0.0%
SFR_1                0      0       0     200        0.0%
BITSFR               0      0       0     200        0.0%
SFR                  0      0       0     200        0.0%
STACK                0      0       0       2        0.0%
NULL                 0      0       0       0        0.0%
ABS                  0      0     157      32        0.0%
DATA                 0      0     157       3        0.0%
CODE                 0      0       0       0        0.0%


Microchip Technology PIC18 Macro Assembler V2.46 build 20240104201356 
Symbol Table                                                                                   Thu Jun 13 13:39:36 2024

            ___awdiv@sign 0158                        _ms 00E5                        bsr 0FE0  
     ___wmul@multiplicand 0003             ?_Envia_cadena 002D                       l113 1C1C  
                     l105 1CE6                       l106 1CE6                       l117 1C4E  
                     l191 1B24                       _abs 1D94             ?_Envia_tiempo 002D  
            ___awmod@sign 0006           Envia_text@texto 015E                       wreg 0FE8  
              _TXSTA1bits 0FAC                      ?_abs 0007                      l2101 1CC0  
                    l2103 1CC8                      l2105 1CD0                      l2091 1CA0  
                    l2093 1CA4                      l2095 1CA8                      l1721 1AEE  
                    l2097 1CB2                      l1731 1AF8                      l1723 1AF0  
                    l1715 1AB0                      l2099 1CB6                      l1741 1B16  
                    l1733 1AFA                      l1725 1AF2                      l1717 1AEA  
                    l1743 1B18                      l1735 1AFC                      l1727 1AF4  
                    l1719 1AEC                      l1745 1B1A                      l1737 1B12  
                    l1729 1AF6                      l1747 1B1C                      l1739 1B14  
                    l1749 1B22                      l1961 1BFC                      l1963 1C0A  
                    l1965 1C1A                      l1967 1C2A                      l1969 1C30  
                    STR_1 10D5                      STR_2 10B5                      STR_3 10D5  
                    STR_4 10D5                      STR_5 10D5                      STR_6 10C5  
                    STR_7 10D5                      STR_8 10DC                      STR_9 10DF  
                    _LATA 0F89                      u1550 1C2A                      u1551 1C26  
                    u1560 1C4E                      u1561 1C4A                      i2l92 13E0  
                    abs@a 0007                      _dbuf 012E                      _main 1CA0  
                    _hint 1008                      _lint 1018                      _prec 0058  
                    fsr1h 0FE2                      fsr2h 0FDA                      indf1 0FE7  
                    indf2 0FDF                      fsr1l 0FE1                      fsr2l 0FD9  
                    btemp 005F                      prodh 0FF4                      prodl 0FF3  
                    start 10B0               Envia_text@i 0163              ___param_bank 0000  
                   ??_abs 0009            ??_Envia_cadena 002E                     ?_main 0165  
                   ?_hint 0001                     ?_lint 0001           __end_of___awdiv 17E4  
         __end_of___awmod 1958           ___awdiv@divisor 0155                     i1l100 10A0  
                   i2l113 1C6E                     i1l425 17E2                     i2l125 19D4  
                   i2l117 1C9E                     i2l134 1B6A                     i2l129 1A04  
                   i2l138 1B94                     i2l425 18A6                     i2l194 1E1A  
          ??_Envia_tiempo 002F                     i2l438 1956                     i2l910 171C  
                   i2l930 1DC6                     i2l923 1D2A                     i2l942 1AAE  
                   i2l927 1DAE                     i2l872 1D92                     i2l953 1E42  
         ___awdiv@counter 0157                     i2l959 1D5E              vfpfcnvrt@fmt 000C  
                   _TMR0H 0FD7                     _TMR0L 0FD6                     _TRISA 0F92  
                   _TRISB 0F93                     _TRISC 0F94                     _TRISD 0F95  
                   _TRISE 0F96                     _flags 005E                     _firma 1006  
                   _error 00E8                     _fputc 1A06                     _listo 011B  
                   _width 0056                     _putch 1E42         Envia_text@num_let 0160  
                   tablat 0FF5                     ttemp5 0060                     ttemp6 0063  
                   ttemp7 0067                     status 0FD8                     wtemp8 0060  
         __end_of_sprintf 1D94                _Envia_text 1BFC        Envia_tiempo@buffer 0030  
         __initialization 1B96        Envia_tiempo@tiempo 002D              __end_of_main 1CEE  
            __end_of_hint 140C              __end_of_lint 10B0                    ??_main 016A  
                  ??_hint 0040                    ??_lint 015B             __activetblptr 0002  
                  ?_fputc 0001          ___awdiv@dividend 0153                    _ANSELA 0F5B  
                  ?_putch 0001                    _ANSELB 0F5C                    _ANSELC 0F5D  
                  _ANSELD 0F5E                    _ANSELE 0F5F                    i2l2001 11AA  
                  i1l1761 1732                    i1l1921 1026                    i2l2011 11DC  
                  i2l2003 11AA                    i1l1771 1758                    i1l1763 173A  
                  i1l1931 1076                    i1l1923 1034                    i2l2021 1224  
                  i2l2013 11E8                    i2l2005 11BE                    i1l1781 1790  
                  i1l1773 1760                    i1l1765 173E                    i1l1757 171E  
                  i1l1941 109E                    i1l1933 1088                    i1l1925 103C  
                  i2l2031 126C                    i2l2023 1244                    i2l2007 11D0  
                  i2l2015 11F4                    i1l1791 17BC                    i1l1783 1796  
                  i1l1775 1772                    i1l1767 174C                    i1l1759 1724  
                  i1l1935 108C                    i1l1927 105A                    i2l2033 1284  
                  i2l2041 12AA                    i2l2025 124C                    i2l2017 1206  
                  i2l2009 11D4                    i1l1785 17AC                    i1l1777 177A  
                  i1l1793 17C2                    i1l1769 1754                    i1l1929 1074  
                  i1l1937 1098                    i2l2051 12E8                    i2l2043 12BC  
                  i2l2035 1296                    i2l2027 1250                    i2l2019 1218  
                  i1l1795 17D2                    i1l1787 17B4                    i1l1779 1782  
                  i1l1939 109C                    i2l1501 1A26                    i2l2061 1332  
                  i2l2045 12CC                    i2l2053 12F4                    i2l2037 129E  
                  i2l2029 1258                    i1l1797 17DA                    i1l1789 17B6  
                  i2l1511 1D94                    i2l1503 1A30                    i2l2071 13A0  
                  i2l2055 1306                    i2l2047 12DC                    i2l2039 12A2  
                  i2l2063 1352                    i2l1513 1DA2                    i2l1505 1A4C  
                  i2l1521 17FE                    i2l1601 15A4                    i2l2073 13A4  
                  i2l2081 13CA                    i2l2065 1366                    i2l2057 1316  
                  i2l2049 12E4                    i2l1507 1A7E                    i2l1531 1824  
                  i2l1523 1802                    i2l1515 17E4                    i2l1611 1622  
                  i2l1603 15C6                    i2l2083 13D2                    i2l2075 13AC  
                  i2l2067 137A                    i2l2059 1326                    i2l1461 18A8  
                  i2l1541 185A                    i2l1533 1836                    i2l1525 1810  
                  i2l1517 17E8                    i2l1621 1686                    i2l1613 164C  
                  i2l1605 15CE                    i2l1701 198C                    i2l2085 13D6  
                  i2l2077 13B4                    i2l2069 138C                    i2l1471 18D4  
                  i2l1463 18AC                    i2l1543 1870                    i2l1535 183E  
                  i2l1551 1886                    i2l1527 1818                    i2l1519 17F6  
                  i2l1623 16B6                    i2l1607 15D6                    i2l1631 16FA  
                  i2l1711 19E2                    i2l1703 19A6                    i2l2079 13BE  
                  i2l2087 13DE                    i2l1481 190C                    i2l1473 18DC  
                  i2l1465 18BA                    i2l1553 1896                    i2l1545 1878  
                  i2l1537 1846                    i2l1529 181C                    i2l1625 16BA  
                  i2l1609 15F8                    i2l1617 165A                    i2l1561 142E  
                  i2l1641 1D06                    i2l1713 19E6                    i2l1705 19BA  
                  i2l1491 1946                    i2l1483 1922                    i2l1475 18EE  
                  i2l1467 18C2                    i2l1555 189E                    i2l1547 187A  
                  i2l1539 1854                    i2l1619 166A                    i2l1627 16EE  
                  i2l1571 146C                    i2l1563 1436                    i2l1643 1D22  
                  i2l1651 1D70                    i2l1707 19C6                    i2l1493 194E  
                  i2l1485 192A                    i2l1477 18F6                    i2l1469 18C6  
                  i2l1549 1880                    i2l1581 14F6                    i2l1573 1488  
                  i2l1565 1442                    i2l1637 1CEE                    i2l1653 1D78  
                  i2l1661 1D34                    i2l1709 19D2                    i2l1487 1930  
                  i2l1479 18FE                    i2l1591 1554                    i2l1583 1512  
                  i2l1575 14A0                    i2l1567 1446                    i2l1559 140C  
                  i2l1639 1CF6                    i2l1655 1D88                    i2l1647 1D60  
                  i2l1663 1D36                    i2l1751 1DF6                    i2l1489 1936  
                  i2l1497 1A06                    i2l1593 156A                    i2l1585 1524  
                  i2l1577 14AA                    i2l1569 1450                    i2l1649 1D68  
                  i2l1665 1D52                    i2l1681 1B36                    i2l1753 1E12  
                  i2l1499 1A16                    i2l1595 1588                    i2l1587 1534  
                  i2l1579 14C2                    i2l1659 1D2C                    i2l1691 1B7E  
                  i2l1683 1B4E                    i2l1589 1544                    i2l1597 158A  
                  i2l1685 1B5C                    i2l1693 1958                    i2l1599 15A0  
                  i2l1687 1B68                    i2l1679 1B26                    i2l1695 1960  
                  i2l1689 1B78                    i2l1697 196C                    i2l1699 1970  
                  i2l1971 1C50                    i2l1973 1C5C                    i2l1981 110C  
                  i2l1975 1C6C                    i2l1991 1150                    i2l1983 111A  
                  i2l1977 1C7C                    i2l1993 116A                    i2l1985 112C  
                  i2l1979 1C80                    i2l1995 1184                    i2l1987 1130  
                  i2l1997 1190                    i2l1989 1134                    i2l1999 1198  
                  _INTCON 0FF2                    _RCREG1 0FAE                    _OSCCON 0FD3  
           vfpfcnvrt@done 0011                    _SPBRG1 0FAF                    _TXREG1 0FAD  
            vfprintf@cfmt 001B             Envia_cadena@i 00C6                    ___wmul 1DF6  
               ??___awdiv 0157                 ??___awmod 0005                    _config 1AB0  
                  _cuenta 0152                    clear_0 1BDC                    clear_1 1BE8  
        ___awdiv@quotient 0159           ___awmod@divisor 0003                    isa$std 0001  
                  _tiempo 00ED           ___awmod@counter 0005                    _strlen 1D2C  
          i2___awdiv@sign 0006                    fputc@c 0001         __end_ofi2___awdiv 18A8  
            __mediumconst 0000                    tblptrh 0FF7                    tblptrl 0FF6  
                  tblptru 0FF8                    putch@c 0001          __end_of_vfprintf 1D2C  
               ??_sprintf 0020      __end_of_Envia_cadena 1B96                __accesstop 0060  
 __end_of__initialization 1BEE             Envia_tiempo@i 003E               ?_Envia_text 015E  
           ___rparam_used 0001      __end_of_Envia_tiempo 1A06       Envia_tiempo@tiempo1 003C  
          __pcstackCOMRAM 0001              __pidataBANK0 1E1C              __pidataBANK1 1DC8  
           __end_of_firma 1008             __end_of_fputc 1AB0             __end_of_putch 1E44  
       Envia_cadena@texto 002D                   ??_fputc 0004                   ??_putch 0001  
              __pbssBANK1 012E      Envia_cadena@cantidad 00C4                _acumulador 005C  
                 ?___wmul 0001                   ?_config 0001                   ?_strlen 0001  
                 _OSCCON2 0FD2                   _OSCTUNE 0F9B                   i2u80_40 18EE  
                 i2u80_41 18EA                   i2u81_40 190C                   i2u81_41 1908  
                 i2u82_40 1922                   i2u90_40 1810                   i2u82_41 191E  
                 i2u90_41 180C                   i2u83_40 1946                   i2u91_40 1836  
                 i2u83_41 1942                   i2u91_41 1832                   _SPBRGH1 0FB0  
                 i2u84_40 1A16                   i2u92_40 1854                   i2u84_41 1A12  
                 i2u92_41 1850                   i2u85_40 1A26                   i2u93_40 1870  
                 i2u85_41 1A22                   i2u93_41 186C                   i2u78_40 18BA  
                 i2u86_40 1A4C                   i2u94_40 1896                   i2u78_41 18B6  
                 i2u86_41 1A48                   i2u94_41 1892                   i2u79_40 18D4  
                 i2u87_40 1A7E                   i2u95_40 142E                   i2u79_41 18D0  
                 i2u87_41 1A7A                   i2u95_41 142A                   i2u88_40 1DA2  
                 i2u96_40 146C                   i2u88_41 1D9E                   i2u96_41 1468  
                 i2u89_40 17F6                   i2u97_40 1488                   i2u89_41 17F2  
                 i2u97_41 1484                   i2u98_40 14BE                   i2u98_41 14B8  
                 i2u99_40 14C0                   __Hparam 0000                   __Lparam 0000  
                 ___awdiv 171E                   ___awmod 18A8                 ?_vfprintf 0018  
            __psmallconst 10B4                   __pcinit 1B96                   __ramtop 0800  
                 __ptext0 1CA0                   __ptext1 1AB0                   __ptext2 1BFC  
                 __ptext4 171E                   __ptext6 1C50                   __ptext7 1DF6  
                 __ptext8 1958                   __ptext9 1B26                 _T0CONbits 0FD5  
        ___awmod@dividend 0001                   _num_int 014E                   _sprintf 1D60  
          __pintcode_body 10E4      end_of_initialization 1BEE                   fputc@fp 0003  
           __Lmediumconst 0000                   int_func 10E4          vfpfcnvrt@cp_1222 000F  
           ?i2_Envia_text 0001             __p_firma_text 1006         __end_of_vfpfcnvrt 171E  
               _RCSTAbits 0FAB                   postdec1 0FE5                   postdec2 0FDD  
                 postinc0 0FEE                   postinc1 0FE6                   postinc2 0FDE  
        vfpfcnvrt@convarg 0013                ??_vfprintf 001B                   strlen@a 0003  
                 strlen@s 0001              _Envia_cadena 1B26              _Envia_tiempo 1958  
               i2___awdiv 17E4            ??i2_Envia_text 0005              ??_Envia_text 0162  
      i2___awdiv@dividend 0001                hint@numero 004B                hint@texto2 0050  
              hint@texto3 0051                hint@texto4 0052                hint@texto5 0053  
              hint@texto6 0054               vfpfcnvrt@ap 000D               vfpfcnvrt@cp 0012  
             vfpfcnvrt@fp 000B                hint@rx_buf 0055            __end_of___wmul 1E1C  
              hint@textot 004F            __end_of_config 1B26            __end_of_strlen 1D60  
     start_initialization 1B96        i2___awdiv@quotient 0007        __end_of_Envia_text 1C50  
             __end_of_abs 1DC8                ?i2___awdiv 0001        Envia_cadena@buffer 0060  
             vfprintf@fmt 0019                  ??___wmul 0005                  ??_config 015E  
             __pdataBANK0 00C8               __pdataBANK1 0100                  ??_strlen 0003  
            _form_tiempo1 00DE              _form_tiempo2 00D7               __pbssCOMRAM 0056  
           __pcstackBANK0 0060             __pcstackBANK1 0153                 __pnvBANK0 00ED  
           i2Envia_text@i 0006                 __pintcode 1008                 _datos_rec 0100  
                ?___awdiv 0153                  ?___awmod 0001               __pintcodelo 1018  
             __smallconst 10B4      __end_ofi2_Envia_text 1CA0                  _BAUDCON1 0FB8  
       i2Envia_text@texto 0001               ??i2___awdiv 0005                  ?_sprintf 001C  
          hint@numero_335 004D            ___wmul@product 0005                  i1u122_20 1732  
                i1u122_21 172E                  i1u123_20 174C                  i1u123_21 1748  
                i1u124_20 1772                  i1u124_21 176E                  i1u125_20 1790  
                i1u125_21 178C                  i1u126_20 17AC                  i1u126_21 17A8  
                i1u127_20 17D2                  i1u127_21 17CE                  i1u152_20 1034  
                i1u152_21 1030                  i1u153_20 1074                  i1u153_21 1070  
                i1u154_20 1088                  i1u154_21 1084                  i2u100_40 1524  
                i2u100_41 1520                  i2u101_40 1534                  i2u101_41 1530  
                i2u110_40 16A6                  i2u102_40 1544                  i2u102_41 1540  
                i2u110_47 169C                  i2u111_40 16DA                  i2u103_40 1554  
                i2u103_41 1550                  i2u111_47 16D0                  i2u112_40 16EA  
                i2u104_40 159C                  i2u120_40 19E2                  i2u112_41 16E6  
                i2u104_41 1598                  i2u120_41 19DE                  i2u105_40 15C6  
                i2u113_40 1D22                  i2u121_40 1A04                  i2u105_41 15C2  
                i2u113_41 1D1E                  i2u121_41 1A00                  i2u106_40 15F8  
                i2u114_40 1D52                  i2u106_41 15F4                  i2u114_41 1D4E  
                i2u107_40 1622                  i2u107_41 161E                  i2u108_40 164C  
                i2u108_41 1648                  i2u109_40 166A                  i2u117_40 1B78  
                i2u109_41 1666                  i2u117_41 1B74                  i2u118_40 1B94  
                i2u118_41 1B90                  i2u119_40 19A6                  i2u119_41 19A2  
                i2u160_40 112C                  i2u160_41 1128                  i2u161_40 1150  
                i2u161_41 114C                  i2u170_40 1296                  i2u162_40 116A  
                i2u170_41 1292                  i2u162_41 1166                  i2u171_40 12BC  
                i2u163_40 1184                  i2u171_41 12B8                  i2u163_41 1180  
                i2u180_40 13A0                  i2u172_40 12CC                  i2u164_40 11BE  
                i2u180_41 139C                  i2u172_41 12C8                  i2u164_41 11BA  
                i2u157_40 1C7C                  i2u173_40 12DC                  i2u165_40 11D0  
                i2u157_41 1C78                  i2u173_41 12D8                  i2u165_41 11CC  
                i2u158_40 1C9E                  i2u174_40 1306                  i2u166_40 1206  
                i2u158_41 1C9A                  i2u174_41 1302                  i2u166_41 1202  
                i2u175_40 1316                  i2u167_40 1218                  i2u159_40 111A  
                i2u175_41 1312                  i2u167_41 1214                  i2u159_41 1116  
                i2u176_40 1326                  i2u168_40 126C                  i2u176_41 1322  
                i2u168_41 1268                  i2u177_40 1366                  i2u169_40 1284  
                i2u177_41 1362                  i2u169_41 1280                  _PIR1bits 0F9E  
                i2u178_40 137A                  i2u178_41 1376                  i2u179_40 138C  
                i2u179_41 1388                  _RCONbits 0FD0                 _vfpfcnvrt 140C  
       ___wmul@multiplier 0001         i2___awdiv@divisor 0003         i2___awdiv@counter 0005  
              vfpfcnvrt@c 0017               _INTCON2bits 0FF1                 copy_data0 1BAA  
               copy_data1 1BCA                  __Hrparam 0000                vfprintf@ap 001A  
                __Lrparam 0000                vfprintf@fp 0018       i2Envia_text@num_let 0003  
              ?_vfpfcnvrt 000B             _tiempo_actual 00C8                sprintf@fmt 001D  
                _carac_rx 005A                  __ptext10 1D2C                  __ptext11 1D60  
                __ptext12 1CEE                  __ptext13 140C                  __ptext14 17E4  
                __ptext15 1A06                  __ptext16 1E42                  __ptext17 1D94  
                __ptext18 18A8                  _contador 0150                  isa$xinst 0000  
                int$flags 005F                  _vfprintf 1CEE                  main@argc 0165  
                main@argv 0167                _INTCONbits 0FF2                  intlevel1 0000  
                intlevel2 0000                 sprintf@ap 0020                _RCSTA1bits 0FAB  
            i2_Envia_text 1C50  Envia_tiempo@cant_digitos 003A               ??_vfpfcnvrt 000E  
                sprintf@f 0021                  sprintf@s 001C             _firma_absaddr 1006  
