

Microchip MPLAB XC8 Assembler V2.46 build 20240104201356 
                                                                                               Sat May 11 22:18:08 2024

Microchip MPLAB XC8 C Compiler v2.46 (Free license) build 20240104201356 Og1 
     1                           	processor	18F45K50
     2                           	fnconf	rparam,??,?,0
     3                           	pagewidth 120
     4                           	opt	flic
     5                           	psect	smallconst,global,reloc=2,class=SMALLCONST,delta=1,noexec
     6                           	psect	cinit,global,reloc=2,class=CODE,delta=1
     7                           	psect	bssCOMRAM,global,class=COMRAM,space=1,delta=1,lowdata,noexec
     8                           	psect	bssBANK0,global,class=BANK0,space=1,delta=1,lowdata,noexec
     9                           	psect	cstackBANK1,global,class=BANK1,space=1,delta=1,lowdata,noexec
    10                           	psect	cstackBANK0,global,class=BANK0,space=1,delta=1,lowdata,noexec
    11                           	psect	cstackCOMRAM,global,class=COMRAM,space=1,delta=1,lowdata,noexec
    12                           	psect	text0,global,reloc=2,class=CODE,delta=1
    13                           	psect	text1,global,reloc=2,class=CODE,delta=1,group=3
    14                           	psect	text2,global,reloc=2,class=CODE,delta=1,group=1
    15                           	psect	text3,global,reloc=2,class=CODE,delta=1,group=1
    16                           	psect	text4,global,reloc=2,class=CODE,delta=1,group=1
    17                           	psect	text5,global,reloc=2,class=CODE,delta=1,group=3
    18                           	psect	text6,global,reloc=2,class=CODE,delta=1,group=1
    19                           	psect	text7,global,reloc=2,class=CODE,delta=1,group=3
    20                           	psect	text8,global,reloc=2,class=CODE,delta=1,group=3
    21                           	psect	text9,global,reloc=2,class=CODE,delta=1,group=3
    22                           	psect	text10,global,reloc=2,class=CODE,delta=1,group=3
    23                           	psect	text11,global,reloc=2,class=CODE,delta=1,group=3
    24                           	psect	text12,global,reloc=2,class=CODE,delta=1,group=3
    25                           	psect	text13,global,reloc=2,class=CODE,delta=1,group=3
    26                           	psect	text14,global,reloc=2,class=CODE,delta=1,group=2
    27                           	psect	text15,global,reloc=2,class=CODE,delta=1,group=2
    28                           	psect	text16,global,reloc=2,class=CODE,delta=1,group=2
    29                           	psect	text17,global,reloc=2,class=CODE,delta=1,group=2
    30                           	psect	text18,global,reloc=2,class=CODE,delta=1,group=2
    31                           	psect	text19,global,reloc=2,class=CODE,delta=1,group=2
    32                           	psect	text20,global,reloc=2,class=CODE,delta=1,group=2
    33                           	psect	text21,global,reloc=2,class=CODE,delta=1,group=2
    34                           	psect	text22,global,reloc=2,class=CODE,delta=1
    35                           	psect	intsave_regs,global,class=BIGRAM,space=1,delta=1,noexec
    36                           	psect	rparam,global,class=COMRAM,space=1,delta=1,noexec
    37                           	psect	idloc,global,abs,ovrld,class=IDLOC,space=5,delta=1,noexec
    38                           	psect	config,global,abs,ovrld,class=CONFIG,space=4,delta=1,noexec
    39   000000                     
    40                           ; Version 2.20
    41                           ; Generated 12/02/2020 GMT
    42                           ; 
    43                           ; Copyright © 2020, Microchip Technology Inc. and its subsidiaries ("Microchip")
    44                           ; All rights reserved.
    45                           ; 
    46                           ; This software is developed by Microchip Technology Inc. and its subsidiaries ("Microch
      +                          ip").
    47                           ; 
    48                           ; Redistribution and use in source and binary forms, with or without modification, are
    49                           ; permitted provided that the following conditions are met:
    50                           ; 
    51                           ;     1. Redistributions of source code must retain the above copyright notice, this lis
      +                          t of
    52                           ;        conditions and the following disclaimer.
    53                           ; 
    54                           ;     2. Redistributions in binary form must reproduce the above copyright notice, this 
      +                          list
    55                           ;        of conditions and the following disclaimer in the documentation and/or other
    56                           ;        materials provided with the distribution.
    57                           ; 
    58                           ;     3. Microchip's name may not be used to endorse or promote products derived from th
      +                          is
    59                           ;        software without specific prior written permission.
    60                           ; 
    61                           ; THIS SOFTWARE IS PROVIDED BY MICROCHIP "AS IS" AND ANY EXPRESS OR IMPLIED WARRANTIES,
    62                           ; INCLUDING, BUT NOT LIMITED TO, THE IMPLIED WARRANTIES OF MERCHANTABILITY AND FITNESS F
      +                          OR
    63                           ; PURPOSE ARE DISCLAIMED.  IN NO EVENT SHALL MICROCHIP BE LIABLE FOR ANY DIRECT, INDIREC
      +                          T,
    64                           ; INCIDENTAL, SPECIAL, EXEMPLARY, OR CONSEQUENTIAL DAMAGES (INCLUDING BUT NOT LIMITED TO
    65                           ; PROCUREMENT OF SUBSTITUTE GOODS OR SERVICES; LOSS OF USE, DATA OR PROFITS; OR BUSINESS
    66                           ; INTERRUPTION) HOWSOEVER CAUSED AND ON ANY THEORY OF LIABILITY, WHETHER IN CONTRACT, ST
      +                          RICT
    67                           ; LIABILITY, OR TORT (INCLUDING NEGLIGENCE OR OTHERWISE) ARISING IN ANY WAY OUT OF THE U
      +                          SE OF
    68                           ; THIS SOFTWARE, EVEN IF ADVISED OF THE POSSIBILITY OF SUCH DAMAGE.
    69                           ; 
    70                           ; 
    71                           ; Code-generator required, PIC18F45K50 Definitions
    72                           ; 
    73                           ; SFR Addresses
    74   000000                     
    75                           	psect	smallconst
    76   000800                     __psmallconst:
    77                           	callstack 0
    78   000800  00                 	db	0
    79   000801                     STR_2:
    80   000801  69                 	db	105	;'i'
    81   000802  6E                 	db	110	;'n'
    82   000803  66                 	db	102	;'f'
    83   000804  00                 	db	0
    84   000805                     STR_5:
    85   000805  6E                 	db	110	;'n'
    86   000806  61                 	db	97	;'a'
    87   000807  6E                 	db	110	;'n'
    88   000808  00                 	db	0
    89   000809  25                 	db	37
    90   00080A  66                 	db	102	;'f'
    91   00080B  00                 	db	0
    92   00080C  00                 	db	0	; dummy byte at the end
    93   000000                     
    94                           ; #config settings
    95                           
    96                           	psect	cinit
    97   00299C                     __pcinit:
    98                           	callstack 0
    99   00299C                     start_initialization:
   100                           	callstack 0
   101   00299C                     __initialization:
   102                           	callstack 0
   103                           
   104                           ; Clear objects allocated to BANK0 (80 bytes)
   105   00299C  EE00  F060         	lfsr	0,__pbssBANK0
   106   0029A0  0E50               	movlw	80
   107   0029A2                     clear_0:
   108   0029A2  6AEE               	clrf	postinc0,c
   109   0029A4  06E8               	decf	wreg,f,c
   110   0029A6  E1FD               	bnz	clear_0
   111                           
   112                           ; Clear objects allocated to COMRAM (13 bytes)
   113   0029A8  EE00  F049         	lfsr	0,__pbssCOMRAM
   114   0029AC  0E0D               	movlw	13
   115   0029AE                     clear_1:
   116   0029AE  6AEE               	clrf	postinc0,c
   117   0029B0  06E8               	decf	wreg,f,c
   118   0029B2  E1FD               	bnz	clear_1
   119   0029B4                     end_of_initialization:
   120                           	callstack 0
   121   0029B4                     __end_of__initialization:
   122                           	callstack 0
   123   0029B4  0E00               	movlw	low (__Lmediumconst shr (0+16))
   124   0029B6  6EF8               	movwf	tblptru,c
   125   0029B8  0100               	movlb	0
   126   0029BA  EF7C  F013         	goto	_main	;jump to C main() function
   127                           
   128                           	psect	bssCOMRAM
   129   000049                     __pbssCOMRAM:
   130                           	callstack 0
   131   000049                     floorf@F521:
   132                           	callstack 0
   133   000049                     	ds	4
   134   00004D                     ___fpclassifyf@F465:
   135                           	callstack 0
   136   00004D                     	ds	4
   137   000051                     _width:
   138                           	callstack 0
   139   000051                     	ds	2
   140   000053                     _prec:
   141                           	callstack 0
   142   000053                     	ds	2
   143   000055                     _flags:
   144                           	callstack 0
   145   000055                     	ds	1
   146                           
   147                           	psect	bssBANK0
   148   000060                     __pbssBANK0:
   149                           	callstack 0
   150   000060                     _dbuf:
   151                           	callstack 0
   152   000060                     	ds	80
   153                           
   154                           	psect	cstackBANK1
   155   000100                     __pcstackBANK1:
   156                           	callstack 0
   157   000100                     main@arreglo:
   158                           	callstack 0
   159                           
   160                           ; 200 bytes @ 0x0
   161   000100                     	ds	200
   162   0001C8                     main@i:
   163                           	callstack 0
   164                           
   165                           ; 2 bytes @ 0xC8
   166   0001C8                     	ds	2
   167   0001CA                     main@num_unos:
   168                           	callstack 0
   169                           
   170                           ; 2 bytes @ 0xCA
   171   0001CA                     	ds	2
   172                           
   173                           	psect	cstackBANK0
   174   0000B0                     __pcstackBANK0:
   175                           	callstack 0
   176   0000B0                     efgtoa@ne:
   177                           	callstack 0
   178                           
   179                           ; 2 bytes @ 0x0
   180   0000B0                     	ds	2
   181   0000B2                     efgtoa@p:
   182                           	callstack 0
   183                           
   184                           ; 2 bytes @ 0x2
   185   0000B2                     	ds	2
   186   0000B4                     efgtoa@t:
   187                           	callstack 0
   188                           
   189                           ; 2 bytes @ 0x4
   190   0000B4                     	ds	2
   191   0000B6                     _efgtoa$597:
   192                           	callstack 0
   193                           
   194                           ; 2 bytes @ 0x6
   195   0000B6                     	ds	2
   196   0000B8                     efgtoa@pp:
   197                           	callstack 0
   198                           
   199                           ; 1 bytes @ 0x8
   200   0000B8                     	ds	1
   201   0000B9                     efgtoa@mode:
   202                           	callstack 0
   203                           
   204                           ; 1 bytes @ 0x9
   205   0000B9                     	ds	1
   206   0000BA                     efgtoa@nmode:
   207                           	callstack 0
   208                           
   209                           ; 1 bytes @ 0xA
   210   0000BA                     	ds	1
   211   0000BB                     efgtoa@d:
   212                           	callstack 0
   213                           
   214                           ; 2 bytes @ 0xB
   215   0000BB                     	ds	2
   216   0000BD                     efgtoa@m:
   217                           	callstack 0
   218                           
   219                           ; 2 bytes @ 0xD
   220   0000BD                     	ds	2
   221   0000BF                     efgtoa@e:
   222                           	callstack 0
   223                           
   224                           ; 2 bytes @ 0xF
   225   0000BF                     	ds	2
   226   0000C1                     efgtoa@w:
   227                           	callstack 0
   228                           
   229                           ; 2 bytes @ 0x11
   230   0000C1                     	ds	2
   231   0000C3                     efgtoa@ou:
   232                           	callstack 0
   233                           
   234                           ; 4 bytes @ 0x13
   235   0000C3                     	ds	4
   236   0000C7                     efgtoa@i:
   237                           	callstack 0
   238                           
   239                           ; 2 bytes @ 0x17
   240   0000C7                     	ds	2
   241   0000C9                     efgtoa@h:
   242                           	callstack 0
   243                           
   244                           ; 4 bytes @ 0x19
   245   0000C9                     	ds	4
   246   0000CD                     efgtoa@l:
   247                           	callstack 0
   248                           
   249                           ; 4 bytes @ 0x1D
   250   0000CD                     	ds	4
   251   0000D1                     efgtoa@sign:
   252                           	callstack 0
   253                           
   254                           ; 1 bytes @ 0x21
   255   0000D1                     	ds	1
   256   0000D2                     efgtoa@n:
   257                           	callstack 0
   258                           
   259                           ; 2 bytes @ 0x22
   260   0000D2                     	ds	2
   261   0000D4                     efgtoa@g:
   262                           	callstack 0
   263                           
   264                           ; 4 bytes @ 0x24
   265   0000D4                     	ds	4
   266   0000D8                     efgtoa@u:
   267                           	callstack 0
   268                           
   269                           ; 4 bytes @ 0x28
   270   0000D8                     	ds	4
   271   0000DC                     ?_printf:
   272                           	callstack 0
   273   0000DC                     printf@fmt:
   274                           	callstack 0
   275                           
   276                           ; 1 bytes @ 0x2C
   277   0000DC                     	ds	3
   278                           
   279                           	psect	cstackCOMRAM
   280   000001                     __pcstackCOMRAM:
   281                           	callstack 0
   282   000001                     ?___fpclassifyf:
   283                           	callstack 0
   284   000001                     ?_contar_unos:
   285                           	callstack 0
   286   000001                     ?___fladd:
   287                           	callstack 0
   288   000001                     ?___fldiv:
   289                           	callstack 0
   290   000001                     ?___flmul:
   291                           	callstack 0
   292   000001                     ?_labs:
   293                           	callstack 0
   294   000001                     ?___flneg:
   295                           	callstack 0
   296   000001                     ?___fltol:
   297                           	callstack 0
   298   000001                     memcpy@d1:
   299                           	callstack 0
   300   000001                     strcpy@dest:
   301                           	callstack 0
   302   000001                     contar_unos@arreglo:
   303                           	callstack 0
   304   000001                     fputc@c:
   305                           	callstack 0
   306   000001                     ___fleq@ff1:
   307                           	callstack 0
   308   000001                     ___flneg@f1:
   309                           	callstack 0
   310   000001                     ___fltol@f1:
   311                           	callstack 0
   312   000001                     ___fladd@b:
   313                           	callstack 0
   314   000001                     ___fldiv@b:
   315                           	callstack 0
   316   000001                     ___flmul@b:
   317                           	callstack 0
   318   000001                     ___fpclassifyf@x:
   319                           	callstack 0
   320   000001                     labs@a:
   321                           	callstack 0
   322                           
   323                           ; 4 bytes @ 0x0
   324   000001                     	ds	1
   325   000002                     memcpy@s1:
   326                           	callstack 0
   327   000002                     strcpy@src:
   328                           	callstack 0
   329                           
   330                           ; 1 bytes @ 0x1
   331   000002                     	ds	1
   332   000003                     ??_strcpy:
   333   000003                     contar_unos@num_elementos:
   334                           	callstack 0
   335   000003                     memcpy@n:
   336                           	callstack 0
   337   000003                     fputc@fp:
   338                           	callstack 0
   339                           
   340                           ; 2 bytes @ 0x2
   341   000003                     	ds	1
   342   000004                     strcpy@d:
   343                           	callstack 0
   344                           
   345                           ; 1 bytes @ 0x3
   346   000004                     	ds	1
   347   000005                     ??_fputc:
   348   000005                     ??___fpclassifyf:
   349   000005                     ??_labs:
   350   000005                     ??_contar_unos:
   351   000005                     ??___fltol:
   352   000005                     memcpy@tmp:
   353                           	callstack 0
   354   000005                     ___fleq@ff2:
   355                           	callstack 0
   356   000005                     ___fladd@a:
   357                           	callstack 0
   358   000005                     ___fldiv@a:
   359                           	callstack 0
   360   000005                     ___flmul@a:
   361                           	callstack 0
   362                           
   363                           ; 4 bytes @ 0x4
   364   000005                     	ds	1
   365   000006                     memcpy@d:
   366                           	callstack 0
   367                           
   368                           ; 1 bytes @ 0x5
   369   000006                     	ds	1
   370   000007                     memcpy@s:
   371                           	callstack 0
   372   000007                     contar_unos@contador:
   373                           	callstack 0
   374                           
   375                           ; 2 bytes @ 0x6
   376   000007                     	ds	2
   377   000009                     ??___fladd:
   378   000009                     ??___fldiv:
   379   000009                     ??___flmul:
   380   000009                     ??___fleq:
   381   000009                     ___fltol@sign1:
   382                           	callstack 0
   383   000009                     contar_unos@i:
   384                           	callstack 0
   385   000009                     ___fpclassifyf@e:
   386                           	callstack 0
   387                           
   388                           ; 2 bytes @ 0x8
   389   000009                     	ds	1
   390   00000A                     ___fltol@exp1:
   391                           	callstack 0
   392   00000A                     fputs@s:
   393                           	callstack 0
   394                           
   395                           ; 1 bytes @ 0x9
   396   00000A                     	ds	1
   397   00000B                     contar_unos@valor:
   398                           	callstack 0
   399   00000B                     fputs@fp:
   400                           	callstack 0
   401   00000B                     ___fpclassifyf@u:
   402                           	callstack 0
   403                           
   404                           ; 4 bytes @ 0xA
   405   00000B                     	ds	2
   406   00000D                     ___fladd@signs:
   407                           	callstack 0
   408   00000D                     ___flmul@sign:
   409                           	callstack 0
   410   00000D                     fputs@c:
   411                           	callstack 0
   412   00000D                     ___fldiv@rem:
   413                           	callstack 0
   414                           
   415                           ; 4 bytes @ 0xC
   416   00000D                     	ds	1
   417   00000E                     ___fladd@aexp:
   418                           	callstack 0
   419   00000E                     fputs@i:
   420                           	callstack 0
   421   00000E                     ___flmul@grs:
   422                           	callstack 0
   423                           
   424                           ; 4 bytes @ 0xD
   425   00000E                     	ds	1
   426   00000F                     ___fladd@bexp:
   427                           	callstack 0
   428                           
   429                           ; 1 bytes @ 0xE
   430   00000F                     	ds	1
   431   000010                     ___fladd@grs:
   432                           	callstack 0
   433   000010                     pad@fp:
   434                           	callstack 0
   435                           
   436                           ; 2 bytes @ 0xF
   437   000010                     	ds	1
   438   000011                     ___fldiv@sign:
   439                           	callstack 0
   440                           
   441                           ; 1 bytes @ 0x10
   442   000011                     	ds	1
   443   000012                     ___flmul@aexp:
   444                           	callstack 0
   445   000012                     pad@buf:
   446                           	callstack 0
   447   000012                     ___fldiv@new_exp:
   448                           	callstack 0
   449                           
   450                           ; 2 bytes @ 0x11
   451   000012                     	ds	1
   452   000013                     ___flmul@bexp:
   453                           	callstack 0
   454   000013                     pad@p:
   455                           	callstack 0
   456                           
   457                           ; 2 bytes @ 0x12
   458   000013                     	ds	1
   459   000014                     ___fldiv@grs:
   460                           	callstack 0
   461   000014                     ___flmul@prod:
   462                           	callstack 0
   463                           
   464                           ; 4 bytes @ 0x13
   465   000014                     	ds	1
   466   000015                     ??_pad:
   467                           
   468                           ; 1 bytes @ 0x14
   469   000015                     	ds	1
   470   000016                     pad@i:
   471                           	callstack 0
   472                           
   473                           ; 2 bytes @ 0x15
   474   000016                     	ds	2
   475   000018                     ___fldiv@bexp:
   476                           	callstack 0
   477   000018                     ___flmul@temp:
   478                           	callstack 0
   479                           
   480                           ; 2 bytes @ 0x17
   481   000018                     	ds	1
   482   000019                     ___fldiv@aexp:
   483                           	callstack 0
   484                           
   485                           ; 1 bytes @ 0x18
   486   000019                     	ds	1
   487   00001A                     ?___flsub:
   488                           	callstack 0
   489   00001A                     ?_floorf:
   490                           	callstack 0
   491   00001A                     ___flge@ff1:
   492                           	callstack 0
   493   00001A                     ___flsub@b:
   494                           	callstack 0
   495   00001A                     floorf@x:
   496                           	callstack 0
   497                           
   498                           ; 4 bytes @ 0x19
   499   00001A                     	ds	4
   500   00001E                     ??_floorf:
   501   00001E                     ___flge@ff2:
   502                           	callstack 0
   503   00001E                     ___flsub@a:
   504                           	callstack 0
   505                           
   506                           ; 4 bytes @ 0x1D
   507   00001E                     	ds	4
   508   000022                     ??___flge:
   509                           
   510                           ; 1 bytes @ 0x21
   511   000022                     	ds	2
   512   000024                     floorf@m:
   513                           	callstack 0
   514                           
   515                           ; 4 bytes @ 0x23
   516   000024                     	ds	4
   517   000028                     floorf@e:
   518                           	callstack 0
   519                           
   520                           ; 2 bytes @ 0x27
   521   000028                     	ds	2
   522   00002A                     floorf@u:
   523                           	callstack 0
   524                           
   525                           ; 4 bytes @ 0x29
   526   00002A                     	ds	4
   527   00002E                     efgtoa@fp:
   528                           	callstack 0
   529                           
   530                           ; 2 bytes @ 0x2D
   531   00002E                     	ds	2
   532   000030                     efgtoa@f:
   533                           	callstack 0
   534                           
   535                           ; 4 bytes @ 0x2F
   536   000030                     	ds	4
   537   000034                     efgtoa@c:
   538                           	callstack 0
   539                           
   540                           ; 1 bytes @ 0x33
   541   000034                     	ds	1
   542   000035                     ??_efgtoa:
   543                           
   544                           ; 1 bytes @ 0x34
   545   000035                     	ds	1
   546   000036                     vfpfcnvrt@fp:
   547                           	callstack 0
   548                           
   549                           ; 2 bytes @ 0x35
   550   000036                     	ds	2
   551   000038                     vfpfcnvrt@fmt:
   552                           	callstack 0
   553                           
   554                           ; 1 bytes @ 0x37
   555   000038                     	ds	1
   556   000039                     vfpfcnvrt@ap:
   557                           	callstack 0
   558                           
   559                           ; 1 bytes @ 0x38
   560   000039                     	ds	1
   561   00003A                     ??_vfpfcnvrt:
   562                           
   563                           ; 1 bytes @ 0x39
   564   00003A                     	ds	1
   565   00003B                     vfpfcnvrt@convarg:
   566                           	callstack 0
   567                           
   568                           ; 4 bytes @ 0x3A
   569   00003B                     	ds	4
   570   00003F                     vfpfcnvrt@c:
   571                           	callstack 0
   572                           
   573                           ; 1 bytes @ 0x3E
   574   00003F                     	ds	1
   575   000040                     vfpfcnvrt@cp:
   576                           	callstack 0
   577                           
   578                           ; 1 bytes @ 0x3F
   579   000040                     	ds	1
   580   000041                     ?_vfprintf:
   581                           	callstack 0
   582   000041                     vfprintf@fp:
   583                           	callstack 0
   584                           
   585                           ; 2 bytes @ 0x40
   586   000041                     	ds	2
   587   000043                     vfprintf@fmt:
   588                           	callstack 0
   589                           
   590                           ; 1 bytes @ 0x42
   591   000043                     	ds	1
   592   000044                     vfprintf@ap:
   593                           	callstack 0
   594                           
   595                           ; 1 bytes @ 0x43
   596   000044                     	ds	1
   597   000045                     vfprintf@cfmt:
   598                           	callstack 0
   599                           
   600                           ; 1 bytes @ 0x44
   601   000045                     	ds	1
   602   000046                     printf@ap:
   603                           	callstack 0
   604                           
   605                           ; 1 bytes @ 0x45
   606   000046                     	ds	1
   607   000047                     ??_main:
   608                           
   609                           ; 1 bytes @ 0x46
   610   000047                     	ds	2
   611                           
   612 ;;
   613 ;;Main: autosize = 0, tempsize = 2, incstack = 0, save=0
   614 ;;
   615 ;; *************** function _main *****************
   616 ;; Defined at:
   617 ;;		line 28 in file "main.c"
   618 ;; Parameters:    Size  Location     Type
   619 ;;		None
   620 ;; Auto vars:     Size  Location     Type
   621 ;;  i               2  200[BANK1 ] int 
   622 ;;  arreglo       200    0[BANK1 ] int [100]
   623 ;;  num_unos        2  202[BANK1 ] volatile int 
   624 ;; Return value:  Size  Location     Type
   625 ;;                  2   16[None  ] int 
   626 ;; Registers used:
   627 ;;		wreg, fsr1l, fsr1h, fsr2l, fsr2h, status,2, status,0, tblptrl, tblptrh, tblptru, prodl, prodh, cstack
   628 ;; Tracked objects:
   629 ;;		On entry : 0/0
   630 ;;		On exit  : 0/0
   631 ;;		Unchanged: 0/0
   632 ;; Data sizes:     COMRAM   BANK0   BANK1   BANK2   BANK3   BANK4   BANK5   BANK6   BANK7
   633 ;;      Params:         0       0       0       0       0       0       0       0       0
   634 ;;      Locals:         0       0     204       0       0       0       0       0       0
   635 ;;      Temps:          2       0       0       0       0       0       0       0       0
   636 ;;      Totals:         2       0     204       0       0       0       0       0       0
   637 ;;Total ram usage:      206 bytes
   638 ;; Hardware stack levels required when called: 8
   639 ;; This function calls:
   640 ;;		_contar_unos
   641 ;;		_printf
   642 ;; This function is called by:
   643 ;;		Startup code after reset
   644 ;; This function uses a non-reentrant model
   645 ;;
   646                           
   647                           	psect	text0
   648   0026F8                     __ptext0:
   649                           	callstack 0
   650   0026F8                     _main:
   651                           	callstack 23
   652   0026F8                     
   653                           ;main.c: 29:     int arreglo[100];;main.c: 32:     for (int i = 0; i < 100; i++) {
   654   0026F8  0E00               	movlw	0
   655   0026FA  0101               	movlb	1	; () banked
   656   0026FC  6FC9               	movwf	(main@i+1)& (0+255),b
   657   0026FE  0E00               	movlw	0
   658   002700  6FC8               	movwf	main@i& (0+255),b
   659   002702                     l2853:
   660                           
   661                           ; BSR set to: 1
   662                           ;main.c: 33:         arreglo[i] = i * 2;
   663   002702  C1C8  F047         	movff	main@i,??_main
   664   002706  C1C9  F048         	movff	main@i+1,??_main+1
   665   00270A  90D8               	bcf	status,0,c
   666   00270C  3647               	rlcf	??_main^0,f,c
   667   00270E  3648               	rlcf	(??_main+1)^0,f,c
   668   002710  90D8               	bcf	status,0,c
   669   002712  35C8               	rlcf	main@i& (0+255),w,b
   670   002714  6ED9               	movwf	fsr2l,c
   671   002716  35C9               	rlcf	(main@i+1)& (0+255),w,b
   672   002718  6EDA               	movwf	fsr2h,c
   673   00271A  0E00               	movlw	low main@arreglo
   674   00271C  26D9               	addwf	fsr2l,f,c
   675   00271E  0E01               	movlw	high main@arreglo
   676   002720  22DA               	addwfc	fsr2h,f,c
   677   002722  C047  FFDE         	movff	??_main,postinc2
   678   002726  C048  FFDD         	movff	??_main+1,postdec2
   679   00272A                     
   680                           ; BSR set to: 1
   681                           ;main.c: 34:     }
   682   00272A  4BC8               	infsnz	main@i& (0+255),f,b
   683   00272C  2BC9               	incf	(main@i+1)& (0+255),f,b
   684   00272E                     
   685                           ; BSR set to: 1
   686   00272E  BFC9               	btfsc	(main@i+1)& (0+255),7,b
   687   002730  EFA3  F013         	goto	u3261
   688   002734  51C9               	movf	(main@i+1)& (0+255),w,b
   689   002736  E109               	bnz	u3260
   690   002738  0E64               	movlw	100
   691   00273A  5DC8               	subwf	main@i& (0+255),w,b
   692   00273C  A0D8               	btfss	status,0,c
   693   00273E  EFA3  F013         	goto	u3261
   694   002742  EFA5  F013         	goto	u3260
   695   002746                     u3261:
   696   002746  EF81  F013         	goto	l2853
   697   00274A                     u3260:
   698   00274A                     
   699                           ; BSR set to: 1
   700                           ;main.c: 37:     volatile int num_unos = contar_unos(arreglo, 10);
   701   00274A  0E00               	movlw	low main@arreglo
   702   00274C  6E01               	movwf	contar_unos@arreglo^0,c
   703   00274E  0E01               	movlw	high main@arreglo
   704   002750  6E02               	movwf	(contar_unos@arreglo+1)^0,c
   705   002752  0E00               	movlw	0
   706   002754  6E04               	movwf	(contar_unos@num_elementos+1)^0,c
   707   002756  0E0A               	movlw	10
   708   002758  6E03               	movwf	contar_unos@num_elementos^0,c
   709   00275A  EC34  F013         	call	_contar_unos	;wreg free
   710   00275E  C001  F1CA         	movff	?_contar_unos,main@num_unos	;volatile
   711   002762  C002  F1CB         	movff	?_contar_unos+1,main@num_unos+1	;volatile
   712   002766  EF00  F000         	goto	start
   713   00276A                     __end_of_main:
   714                           	callstack 0
   715                           
   716 ;; *************** function _printf *****************
   717 ;; Defined at:
   718 ;;		line 5 in file "C:\Program Files\Microchip\xc8\v2.46\pic\sources\c99\common\printf.c"
   719 ;; Parameters:    Size  Location     Type
   720 ;;  fmt             1   44[BANK0 ] PTR const unsigned char 
   721 ;;		 -> STR_1(3), 
   722 ;; Auto vars:     Size  Location     Type
   723 ;;  ret             2    0        int 
   724 ;;  ap              1   69[COMRAM] PTR void [1]
   725 ;;		 -> ?_printf(2), 
   726 ;; Return value:  Size  Location     Type
   727 ;;                  2   44[BANK0 ] int 
   728 ;; Registers used:
   729 ;;		wreg, fsr1l, fsr1h, fsr2l, fsr2h, status,2, status,0, tblptrl, tblptrh, tblptru, prodl, prodh, cstack
   730 ;; Tracked objects:
   731 ;;		On entry : 0/0
   732 ;;		On exit  : 0/0
   733 ;;		Unchanged: 0/0
   734 ;; Data sizes:     COMRAM   BANK0   BANK1   BANK2   BANK3   BANK4   BANK5   BANK6   BANK7
   735 ;;      Params:         0       3       0       0       0       0       0       0       0
   736 ;;      Locals:         1       0       0       0       0       0       0       0       0
   737 ;;      Temps:          0       0       0       0       0       0       0       0       0
   738 ;;      Totals:         1       3       0       0       0       0       0       0       0
   739 ;;Total ram usage:        4 bytes
   740 ;; Hardware stack levels used: 1
   741 ;; Hardware stack levels required when called: 7
   742 ;; This function calls:
   743 ;;		_vfprintf
   744 ;; This function is called by:
   745 ;;		_main
   746 ;; This function uses a non-reentrant model
   747 ;;
   748                           
   749                           	psect	text1
   750   0029BE                     __ptext1:
   751                           	callstack 0
   752   0029BE                     _printf:
   753                           	callstack 23
   754   0029BE  0EDD               	movlw	low (?_printf+1)
   755   0029C0  6E46               	movwf	printf@ap^0,c
   756   0029C2  0E00               	movlw	0
   757   0029C4  6E41               	movwf	vfprintf@fp^0,c
   758   0029C6  0E00               	movlw	0
   759   0029C8  6E42               	movwf	(vfprintf@fp+1)^0,c
   760   0029CA  C0DC  F043         	movff	printf@fmt,vfprintf@fmt
   761   0029CE  0E46               	movlw	low printf@ap
   762   0029D0  6E44               	movwf	vfprintf@ap^0,c
   763   0029D2  EC38  F014         	call	_vfprintf	;wreg free
   764   0029D6  0012               	return		;funcret
   765   0029D8                     __end_of_printf:
   766                           	callstack 0
   767                           
   768 ;; *************** function _vfprintf *****************
   769 ;; Defined at:
   770 ;;		line 1817 in file "C:\Program Files\Microchip\xc8\v2.46\pic\sources\c99\common\doprnt.c"
   771 ;; Parameters:    Size  Location     Type
   772 ;;  fp              2   64[COMRAM] PTR struct _IO_FILE
   773 ;;		 -> NULL(0), 
   774 ;;  fmt             1   66[COMRAM] PTR const unsigned char 
   775 ;;		 -> STR_1(3), 
   776 ;;  ap              1   67[COMRAM] PTR PTR void 
   777 ;;		 -> printf@ap(1), 
   778 ;; Auto vars:     Size  Location     Type
   779 ;;  cfmt            1   68[COMRAM] PTR unsigned char 
   780 ;;		 -> STR_1(3), 
   781 ;; Return value:  Size  Location     Type
   782 ;;                  2   64[COMRAM] int 
   783 ;; Registers used:
   784 ;;		wreg, fsr1l, fsr1h, fsr2l, fsr2h, status,2, status,0, tblptrl, tblptrh, tblptru, prodl, prodh, cstack
   785 ;; Tracked objects:
   786 ;;		On entry : 0/0
   787 ;;		On exit  : 0/0
   788 ;;		Unchanged: 0/0
   789 ;; Data sizes:     COMRAM   BANK0   BANK1   BANK2   BANK3   BANK4   BANK5   BANK6   BANK7
   790 ;;      Params:         4       0       0       0       0       0       0       0       0
   791 ;;      Locals:         1       0       0       0       0       0       0       0       0
   792 ;;      Temps:          0       0       0       0       0       0       0       0       0
   793 ;;      Totals:         5       0       0       0       0       0       0       0       0
   794 ;;Total ram usage:        5 bytes
   795 ;; Hardware stack levels used: 1
   796 ;; Hardware stack levels required when called: 6
   797 ;; This function calls:
   798 ;;		_vfpfcnvrt
   799 ;; This function is called by:
   800 ;;		_printf
   801 ;; This function uses a non-reentrant model
   802 ;;
   803                           
   804                           	psect	text2
   805   002870                     __ptext2:
   806                           	callstack 0
   807   002870                     _vfprintf:
   808                           	callstack 23
   809   002870                     
   810                           ;C:\Program Files\Microchip\xc8\v2.46\pic\sources\c99\common\doprnt.c: 1817: int vfprint
      +                          f(FILE *fp, const char *fmt, va_list ap);C:\Program Files\Microchip\xc8\v2.46\pic\source
      +                          s\c99\common\doprnt.c: 1818: {;C:\Program Files\Microchip\xc8\v2.46\pic\sources\c99\comm
      +                          on\doprnt.c: 1820:     char *cfmt;;C:\Program Files\Microchip\xc8\v2.46\pic\sources\c99\
      +                          common\doprnt.c: 1822:     cfmt = (char *)fmt;
   811   002870  C043  F045         	movff	vfprintf@fmt,vfprintf@cfmt
   812                           
   813                           ;C:\Program Files\Microchip\xc8\v2.46\pic\sources\c99\common\doprnt.c: 1826:     while (
      +                          *cfmt) {
   814   002874  EF46  F014         	goto	l2821
   815   002878                     l2819:
   816                           
   817                           ;C:\Program Files\Microchip\xc8\v2.46\pic\sources\c99\common\doprnt.c: 1830:    vfpfcnvr
      +                          t(fp, &cfmt, ap);
   818   002878  C041  F036         	movff	vfprintf@fp,vfpfcnvrt@fp
   819   00287C  C042  F037         	movff	vfprintf@fp+1,vfpfcnvrt@fp+1
   820   002880  0E45               	movlw	low vfprintf@cfmt
   821   002882  6E38               	movwf	vfpfcnvrt@fmt^0,c
   822   002884  C044  F039         	movff	vfprintf@ap,vfpfcnvrt@ap
   823   002888  EC2A  F010         	call	_vfpfcnvrt	;wreg free
   824   00288C                     l2821:
   825                           
   826                           ;C:\Program Files\Microchip\xc8\v2.46\pic\sources\c99\common\doprnt.c: 1826:     while (
      +                          *cfmt) {
   827   00288C  C045  FFF6         	movff	vfprintf@cfmt,tblptrl
   828   002890                     	if	1	;There is more than 1 active tblptr byte
   829   002890  0E08               	movlw	high __smallconst
   830   002892  6EF7               	movwf	tblptrh,c
   831   002894                     	endif
   832   002894                     	if	0	;tblptru may be non-zero
   833   002894                     	endif
   834   002894                     	if	0	;tblptru may be non-zero
   835   002894                     	endif
   836   002894  0008               	tblrd		*
   837   002896  50F5               	movf	tablat,w,c
   838   002898  0900               	iorlw	0
   839   00289A  A4D8               	btfss	status,2,c
   840   00289C  EF52  F014         	goto	u3221
   841   0028A0  EF54  F014         	goto	u3220
   842   0028A4                     u3221:
   843   0028A4  EF3C  F014         	goto	l2819
   844   0028A8                     u3220:
   845   0028A8                     
   846                           ;C:\Program Files\Microchip\xc8\v2.46\pic\sources\c99\common\doprnt.c: 1835:  return 0;
   847   0028A8  0E00               	movlw	0
   848   0028AA  6E42               	movwf	(?_vfprintf+1)^0,c
   849   0028AC  0E00               	movlw	0
   850   0028AE  6E41               	movwf	?_vfprintf^0,c
   851   0028B0  0012               	return		;funcret
   852   0028B2                     __end_of_vfprintf:
   853                           	callstack 0
   854                           
   855 ;; *************** function _vfpfcnvrt *****************
   856 ;; Defined at:
   857 ;;		line 1177 in file "C:\Program Files\Microchip\xc8\v2.46\pic\sources\c99\common\doprnt.c"
   858 ;; Parameters:    Size  Location     Type
   859 ;;  fp              2   53[COMRAM] PTR struct _IO_FILE
   860 ;;		 -> NULL(0), 
   861 ;;  fmt             1   55[COMRAM] PTR PTR unsigned char 
   862 ;;		 -> vfprintf@cfmt(1), 
   863 ;;  ap              1   56[COMRAM] PTR PTR void 
   864 ;;		 -> printf@ap(1), 
   865 ;; Auto vars:     Size  Location     Type
   866 ;;  convarg         4   58[COMRAM] struct .
   867 ;;  cp              1   63[COMRAM] PTR unsigned char 
   868 ;;		 -> STR_1(3), 
   869 ;;  c               1   62[COMRAM] unsigned char 
   870 ;;  done            1    0        _Bool 
   871 ;; Return value:  Size  Location     Type
   872 ;;                  1    wreg      void 
   873 ;; Registers used:
   874 ;;		wreg, fsr1l, fsr1h, fsr2l, fsr2h, status,2, status,0, tblptrl, tblptrh, tblptru, prodl, prodh, cstack
   875 ;; Tracked objects:
   876 ;;		On entry : 0/0
   877 ;;		On exit  : 0/0
   878 ;;		Unchanged: 0/0
   879 ;; Data sizes:     COMRAM   BANK0   BANK1   BANK2   BANK3   BANK4   BANK5   BANK6   BANK7
   880 ;;      Params:         4       0       0       0       0       0       0       0       0
   881 ;;      Locals:         6       0       0       0       0       0       0       0       0
   882 ;;      Temps:          1       0       0       0       0       0       0       0       0
   883 ;;      Totals:        11       0       0       0       0       0       0       0       0
   884 ;;Total ram usage:       11 bytes
   885 ;; Hardware stack levels used: 1
   886 ;; Hardware stack levels required when called: 5
   887 ;; This function calls:
   888 ;;		_efgtoa
   889 ;;		_fputc
   890 ;; This function is called by:
   891 ;;		_vfprintf
   892 ;; This function uses a non-reentrant model
   893 ;;
   894                           
   895                           	psect	text3
   896   002054                     __ptext3:
   897                           	callstack 0
   898   002054                     _vfpfcnvrt:
   899                           	callstack 23
   900   002054                     
   901                           ;C:\Program Files\Microchip\xc8\v2.46\pic\sources\c99\common\doprnt.c: 1177: vfpfcnvrt(F
      +                          ILE *fp, char *fmt[], va_list ap);C:\Program Files\Microchip\xc8\v2.46\pic\sources\c99\c
      +                          ommon\doprnt.c: 1178: {;C:\Program Files\Microchip\xc8\v2.46\pic\sources\c99\common\dopr
      +                          nt.c: 1179:     char c, *cp;;C:\Program Files\Microchip\xc8\v2.46\pic\sources\c99\common
      +                          \doprnt.c: 1180:     _Bool done;;C:\Program Files\Microchip\xc8\v2.46\pic\sources\c99\co
      +                          mmon\doprnt.c: 1188:  } convarg;;C:\Program Files\Microchip\xc8\v2.46\pic\sources\c99\co
      +                          mmon\doprnt.c: 1201:     if ((*fmt)[0] == '%') {
   902   002054  5038               	movf	vfpfcnvrt@fmt^0,w,c
   903   002056  6ED9               	movwf	fsr2l,c
   904   002058  6ADA               	clrf	fsr2h,c
   905   00205A  CFDF FFF6          	movff	indf2,tblptrl
   906   00205E                     	if	1	;There is more than 1 active tblptr byte
   907   00205E  0E08               	movlw	high __smallconst
   908   002060  6EF7               	movwf	tblptrh,c
   909   002062                     	endif
   910   002062                     	if	0	;tblptru may be non-zero
   911   002062                     	endif
   912   002062                     	if	0	;tblptru may be non-zero
   913   002062                     	endif
   914   002062  0008               	tblrd		*
   915   002064  50F5               	movf	tablat,w,c
   916   002066  0A25               	xorlw	37
   917   002068  A4D8               	btfss	status,2,c
   918   00206A  EF39  F010         	goto	u3201
   919   00206E  EF3B  F010         	goto	u3200
   920   002072                     u3201:
   921   002072  EFE2  F010         	goto	l2811
   922   002076                     u3200:
   923   002076                     
   924                           ;C:\Program Files\Microchip\xc8\v2.46\pic\sources\c99\common\doprnt.c: 1202:         ++*
      +                          fmt;
   925   002076  5038               	movf	vfpfcnvrt@fmt^0,w,c
   926   002078  6ED9               	movwf	fsr2l,c
   927   00207A  6ADA               	clrf	fsr2h,c
   928   00207C  2ADF               	incf	indf2,f,c
   929   00207E                     
   930                           ;C:\Program Files\Microchip\xc8\v2.46\pic\sources\c99\common\doprnt.c: 1204:         fla
      +                          gs = width = 0;
   931   00207E  0E00               	movlw	0
   932   002080  6E52               	movwf	(_width+1)^0,c
   933   002082  0E00               	movlw	0
   934   002084  6E51               	movwf	_width^0,c
   935   002086  C051  F055         	movff	_width,_flags
   936   00208A                     
   937                           ;C:\Program Files\Microchip\xc8\v2.46\pic\sources\c99\common\doprnt.c: 1205:         pre
      +                          c = -1;
   938   00208A  6853               	setf	_prec^0,c
   939   00208C  6854               	setf	(_prec+1)^0,c
   940   00208E                     
   941                           ;C:\Program Files\Microchip\xc8\v2.46\pic\sources\c99\common\doprnt.c: 1689:   cp = *fmt
      +                          ;
   942   00208E  5038               	movf	vfpfcnvrt@fmt^0,w,c
   943   002090  6ED9               	movwf	fsr2l,c
   944   002092  6ADA               	clrf	fsr2h,c
   945   002094  50DF               	movf	indf2,w,c
   946   002096  6E40               	movwf	vfpfcnvrt@cp^0,c
   947   002098                     
   948                           ;C:\Program Files\Microchip\xc8\v2.46\pic\sources\c99\common\doprnt.c: 1690:   c = *cp;
   949   002098  C040  FFF6         	movff	vfpfcnvrt@cp,tblptrl
   950   00209C                     	if	1	;There is more than 1 active tblptr byte
   951   00209C  0E08               	movlw	high __smallconst
   952   00209E  6EF7               	movwf	tblptrh,c
   953   0020A0                     	endif
   954   0020A0                     	if	0	;tblptru may be non-zero
   955   0020A0                     	endif
   956   0020A0                     	if	0	;tblptru may be non-zero
   957   0020A0                     	endif
   958   0020A0  0008               	tblrd		*
   959   0020A2  CFF5 F03F          	movff	tablat,vfpfcnvrt@c
   960                           
   961                           ;C:\Program Files\Microchip\xc8\v2.46\pic\sources\c99\common\doprnt.c: 1691:   switch(c)
      +                           {
   962   0020A6  EF60  F010         	goto	l2785
   963   0020AA                     l2777:
   964                           
   965                           ;C:\Program Files\Microchip\xc8\v2.46\pic\sources\c99\common\doprnt.c: 1695:     cp++;
   966   0020AA  2A40               	incf	vfpfcnvrt@cp^0,f,c
   967                           
   968                           ;C:\Program Files\Microchip\xc8\v2.46\pic\sources\c99\common\doprnt.c: 1696:     break;
   969   0020AC  EF6F  F010         	goto	l2787
   970   0020B0                     l2779:
   971                           
   972                           ;C:\Program Files\Microchip\xc8\v2.46\pic\sources\c99\common\doprnt.c: 1721:     c = 'l'
      +                          ;
   973   0020B0  0E6C               	movlw	108
   974   0020B2  6E3F               	movwf	vfpfcnvrt@c^0,c
   975                           
   976                           ;C:\Program Files\Microchip\xc8\v2.46\pic\sources\c99\common\doprnt.c: 1722:     break;
   977   0020B4  EF6F  F010         	goto	l2787
   978   0020B8                     l2781:
   979                           
   980                           ;C:\Program Files\Microchip\xc8\v2.46\pic\sources\c99\common\doprnt.c: 1724:     c = 0;
   981   0020B8  0E00               	movlw	0
   982   0020BA  6E3F               	movwf	vfpfcnvrt@c^0,c
   983                           
   984                           ;C:\Program Files\Microchip\xc8\v2.46\pic\sources\c99\common\doprnt.c: 1725:     break;
   985   0020BC  EF6F  F010         	goto	l2787
   986   0020C0                     l2785:
   987   0020C0  503F               	movf	vfpfcnvrt@c^0,w,c
   988                           
   989                           ; Switch size 1, requested type "simple"
   990                           ; Number of cases is 3, Range of values is 76 to 108
   991                           ; switch strategies available:
   992                           ; Name         Instructions Cycles
   993                           ; simple_byte           10     6 (average)
   994                           ;	Chosen strategy is simple_byte
   995   0020C2  0A4C               	xorlw	76	; case 76
   996   0020C4  B4D8               	btfsc	status,2,c
   997   0020C6  EF55  F010         	goto	l2777
   998   0020CA  0A2A               	xorlw	42	; case 102
   999   0020CC  B4D8               	btfsc	status,2,c
  1000   0020CE  EF58  F010         	goto	l2779
  1001   0020D2  0A0A               	xorlw	10	; case 108
  1002   0020D4  B4D8               	btfsc	status,2,c
  1003   0020D6  EF55  F010         	goto	l2777
  1004   0020DA  EF5C  F010         	goto	l2781
  1005   0020DE                     l2787:
  1006   0020DE  C040  FFF6         	movff	vfpfcnvrt@cp,tblptrl
  1007   0020E2                     	if	1	;There is more than 1 active tblptr byte
  1008   0020E2  0E08               	movlw	high __smallconst
  1009   0020E4  6EF7               	movwf	tblptrh,c
  1010   0020E6                     	endif
  1011   0020E6                     	if	0	;tblptru may be non-zero
  1012   0020E6                     	endif
  1013   0020E6                     	if	0	;tblptru may be non-zero
  1014   0020E6                     	endif
  1015   0020E6  0008               	tblrd		*
  1016   0020E8  50F5               	movf	tablat,w,c
  1017   0020EA  0A66               	xorlw	102
  1018   0020EC  A4D8               	btfss	status,2,c
  1019   0020EE  EF7B  F010         	goto	u3211
  1020   0020F2  EF7D  F010         	goto	u3210
  1021   0020F6                     u3211:
  1022   0020F6  EFDC  F010         	goto	l2807
  1023   0020FA                     u3210:
  1024   0020FA  EFA7  F010         	goto	l2795
  1025   0020FE                     l2789:
  1026                           
  1027                           ;C:\Program Files\Microchip\xc8\v2.46\pic\sources\c99\common\doprnt.c: 1756:      convar
      +                          g.f = (long double)(*(double *)__va_arg(*(double **)ap, (double)0));
  1028   0020FE  5039               	movf	vfpfcnvrt@ap^0,w,c
  1029   002100  6ED9               	movwf	fsr2l,c
  1030   002102  6ADA               	clrf	fsr2h,c
  1031   002104  CFDF F03A          	movff	indf2,??_vfpfcnvrt
  1032   002108  0E04               	movlw	4
  1033   00210A  26DF               	addwf	indf2,f,c
  1034   00210C  503A               	movf	??_vfpfcnvrt^0,w,c
  1035   00210E  6ED9               	movwf	fsr2l,c
  1036   002110  6ADA               	clrf	fsr2h,c
  1037   002112  CFDE F03B          	movff	postinc2,vfpfcnvrt@convarg
  1038   002116  CFDE F03C          	movff	postinc2,vfpfcnvrt@convarg+1
  1039   00211A  CFDE F03D          	movff	postinc2,vfpfcnvrt@convarg+2
  1040   00211E  CFDE F03E          	movff	postinc2,vfpfcnvrt@convarg+3
  1041                           
  1042                           ;C:\Program Files\Microchip\xc8\v2.46\pic\sources\c99\common\doprnt.c: 1757:      break;
  1043   002122  EFB2  F010         	goto	l2797
  1044   002126                     l2791:
  1045                           
  1046                           ;C:\Program Files\Microchip\xc8\v2.46\pic\sources\c99\common\doprnt.c: 1759:      convar
      +                          g.f = (long double)(*(long double *)__va_arg(*(long double **)ap, (long double)0));
  1047   002126  5039               	movf	vfpfcnvrt@ap^0,w,c
  1048   002128  6ED9               	movwf	fsr2l,c
  1049   00212A  6ADA               	clrf	fsr2h,c
  1050   00212C  CFDF F03A          	movff	indf2,??_vfpfcnvrt
  1051   002130  0E04               	movlw	4
  1052   002132  26DF               	addwf	indf2,f,c
  1053   002134  503A               	movf	??_vfpfcnvrt^0,w,c
  1054   002136  6ED9               	movwf	fsr2l,c
  1055   002138  6ADA               	clrf	fsr2h,c
  1056   00213A  CFDE F03B          	movff	postinc2,vfpfcnvrt@convarg
  1057   00213E  CFDE F03C          	movff	postinc2,vfpfcnvrt@convarg+1
  1058   002142  CFDE F03D          	movff	postinc2,vfpfcnvrt@convarg+2
  1059   002146  CFDE F03E          	movff	postinc2,vfpfcnvrt@convarg+3
  1060                           
  1061                           ;C:\Program Files\Microchip\xc8\v2.46\pic\sources\c99\common\doprnt.c: 1760:      break;
  1062   00214A  EFB2  F010         	goto	l2797
  1063   00214E                     l2795:
  1064   00214E  503F               	movf	vfpfcnvrt@c^0,w,c
  1065                           
  1066                           ; Switch size 1, requested type "simple"
  1067                           ; Number of cases is 2, Range of values is 76 to 108
  1068                           ; switch strategies available:
  1069                           ; Name         Instructions Cycles
  1070                           ; simple_byte            7     4 (average)
  1071                           ;	Chosen strategy is simple_byte
  1072   002150  0A4C               	xorlw	76	; case 76
  1073   002152  B4D8               	btfsc	status,2,c
  1074   002154  EF93  F010         	goto	l2791
  1075   002158  0A20               	xorlw	32	; case 108
  1076   00215A  B4D8               	btfsc	status,2,c
  1077   00215C  EF7F  F010         	goto	l2789
  1078   002160  EFB2  F010         	goto	l2797
  1079   002164                     l2797:
  1080                           
  1081                           ;C:\Program Files\Microchip\xc8\v2.46\pic\sources\c99\common\doprnt.c: 1762:    *fmt = c
      +                          p+1;
  1082   002164  5038               	movf	vfpfcnvrt@fmt^0,w,c
  1083   002166  6ED9               	movwf	fsr2l,c
  1084   002168  6ADA               	clrf	fsr2h,c
  1085   00216A  2840               	incf	vfpfcnvrt@cp^0,w,c
  1086   00216C  6EDF               	movwf	indf2,c
  1087                           
  1088                           ;C:\Program Files\Microchip\xc8\v2.46\pic\sources\c99\common\doprnt.c: 1763:    switch (
      +                          *cp) {
  1089   00216E  EFD0  F010         	goto	l2805
  1090   002172                     l2799:
  1091                           
  1092                           ;C:\Program Files\Microchip\xc8\v2.46\pic\sources\c99\common\doprnt.c: 1790:      return
      +                           (void) efgtoa(fp, convarg.f, *cp);;	Return value of _vfpfcnvrt is never used
  1093   002172  C036  F02E         	movff	vfpfcnvrt@fp,efgtoa@fp
  1094   002176  C037  F02F         	movff	vfpfcnvrt@fp+1,efgtoa@fp+1
  1095   00217A  C03B  F030         	movff	vfpfcnvrt@convarg,efgtoa@f
  1096   00217E  C03C  F031         	movff	vfpfcnvrt@convarg+1,efgtoa@f+1
  1097   002182  C03D  F032         	movff	vfpfcnvrt@convarg+2,efgtoa@f+2
  1098   002186  C03E  F033         	movff	vfpfcnvrt@convarg+3,efgtoa@f+3
  1099   00218A  C040  FFF6         	movff	vfpfcnvrt@cp,tblptrl
  1100   00218E                     	if	1	;There is more than 1 active tblptr byte
  1101   00218E  0E08               	movlw	high __smallconst
  1102   002190  6EF7               	movwf	tblptrh,c
  1103   002192                     	endif
  1104   002192                     	if	0	;tblptru may be non-zero
  1105   002192                     	endif
  1106   002192                     	if	0	;tblptru may be non-zero
  1107   002192                     	endif
  1108   002192  0008               	tblrd		*
  1109   002194  CFF5 F034          	movff	tablat,efgtoa@c
  1110   002198  EC07  F004         	call	_efgtoa	;wreg free
  1111   00219C  EFF5  F010         	goto	l802
  1112   0021A0                     l2805:
  1113   0021A0  C040  FFF6         	movff	vfpfcnvrt@cp,tblptrl
  1114   0021A4                     	if	1	;There is more than 1 active tblptr byte
  1115   0021A4  0E08               	movlw	high __smallconst
  1116   0021A6  6EF7               	movwf	tblptrh,c
  1117   0021A8                     	endif
  1118   0021A8                     	if	0	;tblptru may be non-zero
  1119   0021A8                     	endif
  1120   0021A8                     	if	0	;tblptru may be non-zero
  1121   0021A8                     	endif
  1122   0021A8  0008               	tblrd		*
  1123   0021AA  50F5               	movf	tablat,w,c
  1124                           
  1125                           ; Switch size 1, requested type "simple"
  1126                           ; Number of cases is 1, Range of values is 102 to 102
  1127                           ; switch strategies available:
  1128                           ; Name         Instructions Cycles
  1129                           ; simple_byte            4     3 (average)
  1130                           ;	Chosen strategy is simple_byte
  1131   0021AC  0A66               	xorlw	102	; case 102
  1132   0021AE  B4D8               	btfsc	status,2,c
  1133   0021B0  EFB9  F010         	goto	l2799
  1134   0021B4  EFDC  F010         	goto	l2807
  1135   0021B8                     l2807:
  1136                           
  1137                           ;C:\Program Files\Microchip\xc8\v2.46\pic\sources\c99\common\doprnt.c: 1806:         ++*
      +                          fmt;
  1138   0021B8  5038               	movf	vfpfcnvrt@fmt^0,w,c
  1139   0021BA  6ED9               	movwf	fsr2l,c
  1140   0021BC  6ADA               	clrf	fsr2h,c
  1141   0021BE  2ADF               	incf	indf2,f,c
  1142   0021C0  EFF5  F010         	goto	l802
  1143   0021C4                     l2811:
  1144                           
  1145                           ;C:\Program Files\Microchip\xc8\v2.46\pic\sources\c99\common\doprnt.c: 1811:     fputc((
      +                          int)(*fmt)[0], fp);
  1146   0021C4  5038               	movf	vfpfcnvrt@fmt^0,w,c
  1147   0021C6  6ED9               	movwf	fsr2l,c
  1148   0021C8  6ADA               	clrf	fsr2h,c
  1149   0021CA  CFDF FFF6          	movff	indf2,tblptrl
  1150   0021CE                     	if	1	;There is more than 1 active tblptr byte
  1151   0021CE  0E08               	movlw	high __smallconst
  1152   0021D0  6EF7               	movwf	tblptrh,c
  1153   0021D2                     	endif
  1154   0021D2                     	if	0	;tblptru may be non-zero
  1155   0021D2                     	endif
  1156   0021D2                     	if	0	;tblptru may be non-zero
  1157   0021D2                     	endif
  1158   0021D2  0008               	tblrd		*
  1159   0021D4  50F5               	movf	tablat,w,c
  1160   0021D6  6E01               	movwf	fputc@c^0,c
  1161   0021D8  6A02               	clrf	(fputc@c+1)^0,c
  1162   0021DA  C036  F003         	movff	vfpfcnvrt@fp,fputc@fp
  1163   0021DE  C037  F004         	movff	vfpfcnvrt@fp+1,fputc@fp+1
  1164   0021E2  EC7A  F012         	call	_fputc	;wreg free
  1165   0021E6  EFDC  F010         	goto	l2807
  1166   0021EA                     l802:
  1167   0021EA  0012               	return		;funcret
  1168   0021EC                     __end_of_vfpfcnvrt:
  1169                           	callstack 0
  1170                           
  1171 ;; *************** function _efgtoa *****************
  1172 ;; Defined at:
  1173 ;;		line 587 in file "C:\Program Files\Microchip\xc8\v2.46\pic\sources\c99\common\doprnt.c"
  1174 ;; Parameters:    Size  Location     Type
  1175 ;;  fp              2   45[COMRAM] PTR struct _IO_FILE
  1176 ;;		 -> NULL(0), 
  1177 ;;  f               4   47[COMRAM] PTR struct _IO_FILE
  1178 ;;  c               1   51[COMRAM] unsigned char 
  1179 ;; Auto vars:     Size  Location     Type
  1180 ;;  u               4   40[BANK0 ] struct flui
  1181 ;;  g               4   36[BANK0 ] struct flui
  1182 ;;  l               4   29[BANK0 ] struct flui
  1183 ;;  h               4   25[BANK0 ] struct flui
  1184 ;;  ou              4   19[BANK0 ] struct flui
  1185 ;;  n               2   34[BANK0 ] int 
  1186 ;;  i               2   23[BANK0 ] int 
  1187 ;;  w               2   17[BANK0 ] int 
  1188 ;;  e               2   15[BANK0 ] int 
  1189 ;;  m               2   13[BANK0 ] int 
  1190 ;;  d               2   11[BANK0 ] int 
  1191 ;;  t               2    4[BANK0 ] int 
  1192 ;;  p               2    2[BANK0 ] int 
  1193 ;;  ne              2    0[BANK0 ] int 
  1194 ;;  sign            1   33[BANK0 ] unsigned char 
  1195 ;;  nmode           1   10[BANK0 ] unsigned char 
  1196 ;;  mode            1    9[BANK0 ] unsigned char 
  1197 ;;  pp              1    8[BANK0 ] unsigned char 
  1198 ;;  esign           1    0        unsigned char 
  1199 ;; Return value:  Size  Location     Type
  1200 ;;                  1    wreg      void 
  1201 ;; Registers used:
  1202 ;;		wreg, fsr1l, fsr1h, fsr2l, fsr2h, status,2, status,0, tblptrl, tblptrh, tblptru, prodl, prodh, cstack
  1203 ;; Tracked objects:
  1204 ;;		On entry : 0/0
  1205 ;;		On exit  : 0/0
  1206 ;;		Unchanged: 0/0
  1207 ;; Data sizes:     COMRAM   BANK0   BANK1   BANK2   BANK3   BANK4   BANK5   BANK6   BANK7
  1208 ;;      Params:         7       0       0       0       0       0       0       0       0
  1209 ;;      Locals:         0      44       0       0       0       0       0       0       0
  1210 ;;      Temps:          1       0       0       0       0       0       0       0       0
  1211 ;;      Totals:         8      44       0       0       0       0       0       0       0
  1212 ;;Total ram usage:       52 bytes
  1213 ;; Hardware stack levels used: 1
  1214 ;; Hardware stack levels required when called: 4
  1215 ;; This function calls:
  1216 ;;		___fladd
  1217 ;;		___fldiv
  1218 ;;		___fleq
  1219 ;;		___flge
  1220 ;;		___flmul
  1221 ;;		___flneg
  1222 ;;		___flsub
  1223 ;;		___fltol
  1224 ;;		___fpclassifyf
  1225 ;;		_floorf
  1226 ;;		_labs
  1227 ;;		_memcpy
  1228 ;;		_pad
  1229 ;;		_strcpy
  1230 ;; This function is called by:
  1231 ;;		_vfpfcnvrt
  1232 ;; This function uses a non-reentrant model
  1233 ;;
  1234                           
  1235                           	psect	text4
  1236   00080E                     __ptext4:
  1237                           	callstack 0
  1238   00080E                     _efgtoa:
  1239                           	callstack 23
  1240   00080E                     
  1241                           ;C:\Program Files\Microchip\xc8\v2.46\pic\sources\c99\common\doprnt.c: 587: static void 
      +                          efgtoa(FILE *fp, long double f, char c);C:\Program Files\Microchip\xc8\v2.46\pic\sources
      +                          \c99\common\doprnt.c: 588: {;C:\Program Files\Microchip\xc8\v2.46\pic\sources\c99\common
      +                          \doprnt.c: 589:     char mode, nmode, pp, sign, esign;;C:\Program Files\Microchip\xc8\v2
      +                          .46\pic\sources\c99\common\doprnt.c: 590:     int d, e, i, m, n, ne, p, t, w;;C:\Program
      +                           Files\Microchip\xc8\v2.46\pic\sources\c99\common\doprnt.c: 591:     long double h, l;
  1242   00080E  0E00               	movlw	0
  1243   000810  0100               	movlb	0	; () banked
  1244   000812  6FD1               	movwf	efgtoa@sign& (0+255),b
  1245   000814                     
  1246                           ; BSR set to: 0
  1247                           ;C:\Program Files\Microchip\xc8\v2.46\pic\sources\c99\common\doprnt.c: 596:     g.f = f;
  1248   000814  C030  F0D4         	movff	efgtoa@f,efgtoa@g
  1249   000818  C031  F0D5         	movff	efgtoa@f+1,efgtoa@g+1
  1250   00081C  C032  F0D6         	movff	efgtoa@f+2,efgtoa@g+2
  1251   000820  C033  F0D7         	movff	efgtoa@f+3,efgtoa@g+3
  1252   000824                     
  1253                           ; BSR set to: 0
  1254                           ;C:\Program Files\Microchip\xc8\v2.46\pic\sources\c99\common\doprnt.c: 597:     if (g.f 
      +                          < 0.0) {
  1255   000824  BFD7               	btfsc	(efgtoa@g+3)& (0+255),7,b
  1256   000826  EF19  F004         	goto	u2880
  1257   00082A  EF17  F004         	goto	u2881
  1258   00082E                     u2881:
  1259   00082E  EF2D  F004         	goto	l2553
  1260   000832                     u2880:
  1261   000832                     
  1262                           ; BSR set to: 0
  1263                           ;C:\Program Files\Microchip\xc8\v2.46\pic\sources\c99\common\doprnt.c: 598:         sign
      +                           = 1;
  1264   000832  0E01               	movlw	1
  1265   000834  6FD1               	movwf	efgtoa@sign& (0+255),b
  1266   000836                     
  1267                           ; BSR set to: 0
  1268                           ;C:\Program Files\Microchip\xc8\v2.46\pic\sources\c99\common\doprnt.c: 599:         g.f 
      +                          = -g.f;
  1269   000836  C0D4  F001         	movff	efgtoa@g,___flneg@f1
  1270   00083A  C0D5  F002         	movff	efgtoa@g+1,___flneg@f1+1
  1271   00083E  C0D6  F003         	movff	efgtoa@g+2,___flneg@f1+2
  1272   000842  C0D7  F004         	movff	efgtoa@g+3,___flneg@f1+3
  1273   000846  EC99  F014         	call	___flneg	;wreg free
  1274   00084A  C001  F0D4         	movff	?___flneg,efgtoa@g
  1275   00084E  C002  F0D5         	movff	?___flneg+1,efgtoa@g+1
  1276   000852  C003  F0D6         	movff	?___flneg+2,efgtoa@g+2
  1277   000856  C004  F0D7         	movff	?___flneg+3,efgtoa@g+3
  1278   00085A                     l2553:
  1279                           
  1280                           ;C:\Program Files\Microchip\xc8\v2.46\pic\sources\c99\common\doprnt.c: 603:     n = 0;
  1281   00085A  0E00               	movlw	0
  1282   00085C  0100               	movlb	0	; () banked
  1283   00085E  6FD3               	movwf	(efgtoa@n+1)& (0+255),b
  1284   000860  0E00               	movlw	0
  1285   000862  6FD2               	movwf	efgtoa@n& (0+255),b
  1286   000864                     
  1287                           ; BSR set to: 0
  1288                           ;C:\Program Files\Microchip\xc8\v2.46\pic\sources\c99\common\doprnt.c: 604:     w = widt
      +                          h;
  1289   000864  C051  F0C1         	movff	_width,efgtoa@w
  1290   000868  C052  F0C2         	movff	_width+1,efgtoa@w+1
  1291   00086C                     
  1292                           ; BSR set to: 0
  1293                           ;C:\Program Files\Microchip\xc8\v2.46\pic\sources\c99\common\doprnt.c: 605:     if (sign
  1294   00086C  51D1               	movf	efgtoa@sign& (0+255),w,b
  1295   00086E  B4D8               	btfsc	status,2,c
  1296   000870  EF3C  F004         	goto	u2891
  1297   000874  EF3E  F004         	goto	u2890
  1298   000878                     u2891:
  1299   000878  EF52  F004         	goto	l2567
  1300   00087C                     u2890:
  1301   00087C                     
  1302                           ; BSR set to: 0
  1303                           ;C:\Program Files\Microchip\xc8\v2.46\pic\sources\c99\common\doprnt.c: 609:    ) {;C:\Pr
      +                          ogram Files\Microchip\xc8\v2.46\pic\sources\c99\common\doprnt.c: 610:   sign = sign ? '-
      +                          ' : '+';
  1304   00087C  51D1               	movf	efgtoa@sign& (0+255),w,b
  1305   00087E  A4D8               	btfss	status,2,c
  1306   000880  EF44  F004         	goto	u2901
  1307   000884  EF46  F004         	goto	u2900
  1308   000888                     u2901:
  1309   000888  EF4C  F004         	goto	l2563
  1310   00088C                     u2900:
  1311   00088C                     
  1312                           ; BSR set to: 0
  1313   00088C  0E00               	movlw	0
  1314   00088E  6FB7               	movwf	(_efgtoa$597+1)& (0+255),b
  1315   000890  0E2B               	movlw	43
  1316   000892  6FB6               	movwf	_efgtoa$597& (0+255),b
  1317   000894  EF50  F004         	goto	l2565
  1318   000898                     l2563:
  1319                           
  1320                           ; BSR set to: 0
  1321   000898  0E00               	movlw	0
  1322   00089A  6FB7               	movwf	(_efgtoa$597+1)& (0+255),b
  1323   00089C  0E2D               	movlw	45
  1324   00089E  6FB6               	movwf	_efgtoa$597& (0+255),b
  1325   0008A0                     l2565:
  1326                           
  1327                           ; BSR set to: 0
  1328   0008A0  C0B6  F0D1         	movff	_efgtoa$597,efgtoa@sign
  1329   0008A4                     l2567:
  1330                           
  1331                           ; BSR set to: 0
  1332                           ;C:\Program Files\Microchip\xc8\v2.46\pic\sources\c99\common\doprnt.c: 619:     if (( __
      +                          fpclassifyf(g.f) == 1 )) {
  1333   0008A4  C0D4  F001         	movff	efgtoa@g,___fpclassifyf@x
  1334   0008A8  C0D5  F002         	movff	efgtoa@g+1,___fpclassifyf@x+1
  1335   0008AC  C0D6  F003         	movff	efgtoa@g+2,___fpclassifyf@x+2
  1336   0008B0  C0D7  F004         	movff	efgtoa@g+3,___fpclassifyf@x+3
  1337   0008B4  ECFB  F011         	call	___fpclassifyf	;wreg free
  1338   0008B8  0401               	decf	?___fpclassifyf^0,w,c
  1339   0008BA  1002               	iorwf	(?___fpclassifyf+1)^0,w,c
  1340   0008BC  A4D8               	btfss	status,2,c
  1341   0008BE  EF63  F004         	goto	u2911
  1342   0008C2  EF65  F004         	goto	u2910
  1343   0008C6                     u2911:
  1344   0008C6  EF91  F004         	goto	l2585
  1345   0008CA                     u2910:
  1346   0008CA                     
  1347                           ;C:\Program Files\Microchip\xc8\v2.46\pic\sources\c99\common\doprnt.c: 620:   if (sign) 
      +                          {
  1348   0008CA  0100               	movlb	0	; () banked
  1349   0008CC  51D1               	movf	efgtoa@sign& (0+255),w,b
  1350   0008CE  B4D8               	btfsc	status,2,c
  1351   0008D0  EF6C  F004         	goto	u2921
  1352   0008D4  EF6E  F004         	goto	u2920
  1353   0008D8                     u2921:
  1354   0008D8  EF77  F004         	goto	l2577
  1355   0008DC                     u2920:
  1356   0008DC                     
  1357                           ; BSR set to: 0
  1358                           ;C:\Program Files\Microchip\xc8\v2.46\pic\sources\c99\common\doprnt.c: 621:    dbuf[0] =
      +                           sign;
  1359   0008DC  C0D1  F060         	movff	efgtoa@sign,_dbuf
  1360   0008E0                     
  1361                           ; BSR set to: 0
  1362                           ;C:\Program Files\Microchip\xc8\v2.46\pic\sources\c99\common\doprnt.c: 622:    w--;
  1363   0008E0  07C1               	decf	efgtoa@w& (0+255),f,b
  1364   0008E2  A0D8               	btfss	status,0,c
  1365   0008E4  07C2               	decf	(efgtoa@w+1)& (0+255),f,b
  1366   0008E6                     
  1367                           ; BSR set to: 0
  1368                           ;C:\Program Files\Microchip\xc8\v2.46\pic\sources\c99\common\doprnt.c: 623:    n = 1;
  1369   0008E6  0E00               	movlw	0
  1370   0008E8  6FD3               	movwf	(efgtoa@n+1)& (0+255),b
  1371   0008EA  0E01               	movlw	1
  1372   0008EC  6FD2               	movwf	efgtoa@n& (0+255),b
  1373   0008EE                     l2577:
  1374                           
  1375                           ; BSR set to: 0
  1376                           ;C:\Program Files\Microchip\xc8\v2.46\pic\sources\c99\common\doprnt.c: 631:   {;C:\Progr
      +                          am Files\Microchip\xc8\v2.46\pic\sources\c99\common\doprnt.c: 632:             strcpy(&d
      +                          buf[n], "inf");
  1377   0008EE  51D2               	movf	efgtoa@n& (0+255),w,b
  1378   0008F0  0F60               	addlw	low _dbuf
  1379   0008F2  6E01               	movwf	strcpy@dest^0,c
  1380   0008F4  0E01               	movlw	low STR_2
  1381   0008F6  6E02               	movwf	strcpy@src^0,c
  1382   0008F8  ECB5  F014         	call	_strcpy	;wreg free
  1383   0008FC                     l2579:
  1384                           
  1385                           ;C:\Program Files\Microchip\xc8\v2.46\pic\sources\c99\common\doprnt.c: 633:         };C:
      +                          \Program Files\Microchip\xc8\v2.46\pic\sources\c99\common\doprnt.c: 634:         w -= ((
      +                          sizeof("inf")/sizeof("inf"[0]))-1);
  1386   0008FC  0100               	movlb	0	; () banked
  1387   0008FE  0EFD               	movlw	253
  1388   000900  27C1               	addwf	efgtoa@w& (0+255),f,b
  1389   000902  0EFF               	movlw	255
  1390   000904  23C2               	addwfc	(efgtoa@w+1)& (0+255),f,b
  1391   000906                     
  1392                           ; BSR set to: 0
  1393                           ;C:\Program Files\Microchip\xc8\v2.46\pic\sources\c99\common\doprnt.c: 635:         retu
      +                          rn (void) pad(fp, &dbuf[0], w);
  1394   000906  C02E  F010         	movff	efgtoa@fp,pad@fp
  1395   00090A  C02F  F011         	movff	efgtoa@fp+1,pad@fp+1
  1396   00090E  0E60               	movlw	low _dbuf
  1397   000910  6E12               	movwf	pad@buf^0,c
  1398   000912  C0C1  F013         	movff	efgtoa@w,pad@p
  1399   000916  C0C2  F014         	movff	efgtoa@w+1,pad@p+1
  1400   00091A  ECB5  F013         	call	_pad	;wreg free
  1401   00091E  EFDE  F008         	goto	l742
  1402   000922                     l2585:
  1403                           
  1404                           ;C:\Program Files\Microchip\xc8\v2.46\pic\sources\c99\common\doprnt.c: 637:     if (( __
      +                          fpclassifyf(g.f) == 0 )) {
  1405   000922  C0D4  F001         	movff	efgtoa@g,___fpclassifyf@x
  1406   000926  C0D5  F002         	movff	efgtoa@g+1,___fpclassifyf@x+1
  1407   00092A  C0D6  F003         	movff	efgtoa@g+2,___fpclassifyf@x+2
  1408   00092E  C0D7  F004         	movff	efgtoa@g+3,___fpclassifyf@x+3
  1409   000932  ECFB  F011         	call	___fpclassifyf	;wreg free
  1410   000936  5001               	movf	?___fpclassifyf^0,w,c
  1411   000938  1002               	iorwf	(?___fpclassifyf+1)^0,w,c
  1412   00093A  A4D8               	btfss	status,2,c
  1413   00093C  EFA2  F004         	goto	u2931
  1414   000940  EFA4  F004         	goto	u2930
  1415   000944                     u2931:
  1416   000944  EFBF  F004         	goto	l2603
  1417   000948                     u2930:
  1418   000948                     
  1419                           ;C:\Program Files\Microchip\xc8\v2.46\pic\sources\c99\common\doprnt.c: 638:   if (sign) 
      +                          {
  1420   000948  0100               	movlb	0	; () banked
  1421   00094A  51D1               	movf	efgtoa@sign& (0+255),w,b
  1422   00094C  B4D8               	btfsc	status,2,c
  1423   00094E  EFAB  F004         	goto	u2941
  1424   000952  EFAD  F004         	goto	u2940
  1425   000956                     u2941:
  1426   000956  EFB6  F004         	goto	l2595
  1427   00095A                     u2940:
  1428   00095A                     
  1429                           ; BSR set to: 0
  1430                           ;C:\Program Files\Microchip\xc8\v2.46\pic\sources\c99\common\doprnt.c: 639:    dbuf[0] =
      +                           sign;
  1431   00095A  C0D1  F060         	movff	efgtoa@sign,_dbuf
  1432   00095E                     
  1433                           ; BSR set to: 0
  1434                           ;C:\Program Files\Microchip\xc8\v2.46\pic\sources\c99\common\doprnt.c: 640:    w--;
  1435   00095E  07C1               	decf	efgtoa@w& (0+255),f,b
  1436   000960  A0D8               	btfss	status,0,c
  1437   000962  07C2               	decf	(efgtoa@w+1)& (0+255),f,b
  1438   000964                     
  1439                           ; BSR set to: 0
  1440                           ;C:\Program Files\Microchip\xc8\v2.46\pic\sources\c99\common\doprnt.c: 641:    n = 1;
  1441   000964  0E00               	movlw	0
  1442   000966  6FD3               	movwf	(efgtoa@n+1)& (0+255),b
  1443   000968  0E01               	movlw	1
  1444   00096A  6FD2               	movwf	efgtoa@n& (0+255),b
  1445   00096C                     l2595:
  1446                           
  1447                           ; BSR set to: 0
  1448                           ;C:\Program Files\Microchip\xc8\v2.46\pic\sources\c99\common\doprnt.c: 649:   {;C:\Progr
      +                          am Files\Microchip\xc8\v2.46\pic\sources\c99\common\doprnt.c: 650:             strcpy(&d
      +                          buf[n], "nan");
  1449   00096C  51D2               	movf	efgtoa@n& (0+255),w,b
  1450   00096E  0F60               	addlw	low _dbuf
  1451   000970  6E01               	movwf	strcpy@dest^0,c
  1452   000972  0E05               	movlw	low STR_5
  1453   000974  6E02               	movwf	strcpy@src^0,c
  1454   000976  ECB5  F014         	call	_strcpy	;wreg free
  1455   00097A  EF7E  F004         	goto	l2579
  1456   00097E                     l2603:
  1457                           
  1458                           ;C:\Program Files\Microchip\xc8\v2.46\pic\sources\c99\common\doprnt.c: 657:     u.f = 1.
      +                          0;
  1459   00097E  0E00               	movlw	0
  1460   000980  0100               	movlb	0	; () banked
  1461   000982  6FD8               	movwf	efgtoa@u& (0+255),b
  1462   000984  0E00               	movlw	0
  1463   000986  6FD9               	movwf	(efgtoa@u+1)& (0+255),b
  1464   000988  0E80               	movlw	128
  1465   00098A  6FDA               	movwf	(efgtoa@u+2)& (0+255),b
  1466   00098C  0E3F               	movlw	63
  1467   00098E  6FDB               	movwf	(efgtoa@u+3)& (0+255),b
  1468                           
  1469                           ;C:\Program Files\Microchip\xc8\v2.46\pic\sources\c99\common\doprnt.c: 658:     e = 0;
  1470   000990  0E00               	movlw	0
  1471   000992  6FC0               	movwf	(efgtoa@e+1)& (0+255),b
  1472   000994  0E00               	movlw	0
  1473   000996  6FBF               	movwf	efgtoa@e& (0+255),b
  1474   000998                     
  1475                           ; BSR set to: 0
  1476                           ;C:\Program Files\Microchip\xc8\v2.46\pic\sources\c99\common\doprnt.c: 659:  if (!(g.f =
      +                          = 0.0)) {
  1477   000998  C0D4  F001         	movff	efgtoa@g,___fleq@ff1
  1478   00099C  C0D5  F002         	movff	efgtoa@g+1,___fleq@ff1+1
  1479   0009A0  C0D6  F003         	movff	efgtoa@g+2,___fleq@ff1+2
  1480   0009A4  C0D7  F004         	movff	efgtoa@g+3,___fleq@ff1+3
  1481   0009A8  0E00               	movlw	0
  1482   0009AA  6E05               	movwf	___fleq@ff2^0,c
  1483   0009AC  0E00               	movlw	0
  1484   0009AE  6E06               	movwf	(___fleq@ff2+1)^0,c
  1485   0009B0  0E00               	movlw	0
  1486   0009B2  6E07               	movwf	(___fleq@ff2+2)^0,c
  1487   0009B4  0E00               	movlw	0
  1488   0009B6  6E08               	movwf	(___fleq@ff2+3)^0,c
  1489   0009B8  ECDF  F012         	call	___fleq	;wreg free
  1490   0009BC  B0D8               	btfsc	status,0,c
  1491   0009BE  EFE3  F004         	goto	u2951
  1492   0009C2  EFE5  F004         	goto	u2950
  1493   0009C6                     u2951:
  1494   0009C6  EFC4  F005         	goto	l745
  1495   0009CA                     u2950:
  1496   0009CA  EFF2  F004         	goto	l2611
  1497   0009CE                     l747:
  1498                           
  1499                           ;C:\Program Files\Microchip\xc8\v2.46\pic\sources\c99\common\doprnt.c: 661:    u = ou;
  1500   0009CE  C0C3  F0D8         	movff	efgtoa@ou,efgtoa@u
  1501   0009D2  C0C4  F0D9         	movff	efgtoa@ou+1,efgtoa@u+1
  1502   0009D6  C0C5  F0DA         	movff	efgtoa@ou+2,efgtoa@u+2
  1503   0009DA  C0C6  F0DB         	movff	efgtoa@ou+3,efgtoa@u+3
  1504   0009DE                     
  1505                           ;C:\Program Files\Microchip\xc8\v2.46\pic\sources\c99\common\doprnt.c: 662:    ++e;
  1506   0009DE  0100               	movlb	0	; () banked
  1507   0009E0  4BBF               	infsnz	efgtoa@e& (0+255),f,b
  1508   0009E2  2BC0               	incf	(efgtoa@e+1)& (0+255),f,b
  1509   0009E4                     l2611:
  1510                           
  1511                           ;C:\Program Files\Microchip\xc8\v2.46\pic\sources\c99\common\doprnt.c: 660:   while ((la
      +                          bs((g).u-((ou.f = u.f*10.0,ou)).u) <= 1) || g.f > ou.f) {
  1512   0009E4  C0D8  F001         	movff	efgtoa@u,___flmul@b
  1513   0009E8  C0D9  F002         	movff	efgtoa@u+1,___flmul@b+1
  1514   0009EC  C0DA  F003         	movff	efgtoa@u+2,___flmul@b+2
  1515   0009F0  C0DB  F004         	movff	efgtoa@u+3,___flmul@b+3
  1516   0009F4  0E00               	movlw	0
  1517   0009F6  6E05               	movwf	___flmul@a^0,c
  1518   0009F8  0E00               	movlw	0
  1519   0009FA  6E06               	movwf	(___flmul@a+1)^0,c
  1520   0009FC  0E20               	movlw	32
  1521   0009FE  6E07               	movwf	(___flmul@a+2)^0,c
  1522   000A00  0E41               	movlw	65
  1523   000A02  6E08               	movwf	(___flmul@a+3)^0,c
  1524   000A04  EC3F  F00B         	call	___flmul	;wreg free
  1525   000A08  C001  F0C3         	movff	?___flmul,efgtoa@ou
  1526   000A0C  C002  F0C4         	movff	?___flmul+1,efgtoa@ou+1
  1527   000A10  C003  F0C5         	movff	?___flmul+2,efgtoa@ou+2
  1528   000A14  C004  F0C6         	movff	?___flmul+3,efgtoa@ou+3
  1529   000A18  0100               	movlb	0	; () banked
  1530   000A1A  51C3               	movf	efgtoa@ou& (0+255),w,b
  1531   000A1C  5DD4               	subwf	efgtoa@g& (0+255),w,b
  1532   000A1E  6E01               	movwf	labs@a^0,c
  1533   000A20  51C4               	movf	(efgtoa@ou+1)& (0+255),w,b
  1534   000A22  59D5               	subwfb	(efgtoa@g+1)& (0+255),w,b
  1535   000A24  6E02               	movwf	(labs@a+1)^0,c
  1536   000A26  51C5               	movf	(efgtoa@ou+2)& (0+255),w,b
  1537   000A28  59D6               	subwfb	(efgtoa@g+2)& (0+255),w,b
  1538   000A2A  6E03               	movwf	(labs@a+2)^0,c
  1539   000A2C  51C6               	movf	(efgtoa@ou+3)& (0+255),w,b
  1540   000A2E  59D7               	subwfb	(efgtoa@g+3)& (0+255),w,b
  1541   000A30  6E04               	movwf	(labs@a+3)^0,c
  1542   000A32  ECEA  F013         	call	_labs	;wreg free
  1543   000A36  BE04               	btfsc	(?_labs+3)^0,7,c
  1544   000A38  EF29  F005         	goto	u2961
  1545   000A3C  5004               	movf	(?_labs+3)^0,w,c
  1546   000A3E  1003               	iorwf	(?_labs+2)^0,w,c
  1547   000A40  1002               	iorwf	(?_labs+1)^0,w,c
  1548   000A42  E109               	bnz	u2960
  1549   000A44  0E02               	movlw	2
  1550   000A46  5C01               	subwf	?_labs^0,w,c
  1551   000A48  A0D8               	btfss	status,0,c
  1552   000A4A  EF29  F005         	goto	u2961
  1553   000A4E  EF2B  F005         	goto	u2960
  1554   000A52                     u2961:
  1555   000A52  EFE7  F004         	goto	l747
  1556   000A56                     u2960:
  1557   000A56  C0C3  F01A         	movff	efgtoa@ou,___flge@ff1
  1558   000A5A  C0C4  F01B         	movff	efgtoa@ou+1,___flge@ff1+1
  1559   000A5E  C0C5  F01C         	movff	efgtoa@ou+2,___flge@ff1+2
  1560   000A62  C0C6  F01D         	movff	efgtoa@ou+3,___flge@ff1+3
  1561   000A66  C0D4  F01E         	movff	efgtoa@g,___flge@ff2
  1562   000A6A  C0D5  F01F         	movff	efgtoa@g+1,___flge@ff2+1
  1563   000A6E  C0D6  F020         	movff	efgtoa@g+2,___flge@ff2+2
  1564   000A72  C0D7  F021         	movff	efgtoa@g+3,___flge@ff2+3
  1565   000A76  EC79  F011         	call	___flge	;wreg free
  1566   000A7A  A0D8               	btfss	status,0,c
  1567   000A7C  EF42  F005         	goto	u2971
  1568   000A80  EF44  F005         	goto	u2970
  1569   000A84                     u2971:
  1570   000A84  EFE7  F004         	goto	l747
  1571   000A88                     u2970:
  1572   000A88                     
  1573                           ;C:\Program Files\Microchip\xc8\v2.46\pic\sources\c99\common\doprnt.c: 664:   if ((labs(
      +                          (g).u-(u).u) <= 1)) {
  1574   000A88  0100               	movlb	0	; () banked
  1575   000A8A  51D8               	movf	efgtoa@u& (0+255),w,b
  1576   000A8C  5DD4               	subwf	efgtoa@g& (0+255),w,b
  1577   000A8E  6E01               	movwf	labs@a^0,c
  1578   000A90  51D9               	movf	(efgtoa@u+1)& (0+255),w,b
  1579   000A92  59D5               	subwfb	(efgtoa@g+1)& (0+255),w,b
  1580   000A94  6E02               	movwf	(labs@a+1)^0,c
  1581   000A96  51DA               	movf	(efgtoa@u+2)& (0+255),w,b
  1582   000A98  59D6               	subwfb	(efgtoa@g+2)& (0+255),w,b
  1583   000A9A  6E03               	movwf	(labs@a+2)^0,c
  1584   000A9C  51DB               	movf	(efgtoa@u+3)& (0+255),w,b
  1585   000A9E  59D7               	subwfb	(efgtoa@g+3)& (0+255),w,b
  1586   000AA0  6E04               	movwf	(labs@a+3)^0,c
  1587   000AA2  ECEA  F013         	call	_labs	;wreg free
  1588   000AA6  BE04               	btfsc	(?_labs+3)^0,7,c
  1589   000AA8  EF63  F005         	goto	u2980
  1590   000AAC  5004               	movf	(?_labs+3)^0,w,c
  1591   000AAE  1003               	iorwf	(?_labs+2)^0,w,c
  1592   000AB0  1002               	iorwf	(?_labs+1)^0,w,c
  1593   000AB2  E107               	bnz	u2981
  1594   000AB4  0E02               	movlw	2
  1595   000AB6  5C01               	subwf	?_labs^0,w,c
  1596   000AB8  B0D8               	btfsc	status,0,c
  1597   000ABA  EF61  F005         	goto	u2981
  1598   000ABE  EF63  F005         	goto	u2980
  1599   000AC2                     u2981:
  1600   000AC2  EFAB  F005         	goto	l2629
  1601   000AC6                     u2980:
  1602   000AC6                     l2619:
  1603                           
  1604                           ;C:\Program Files\Microchip\xc8\v2.46\pic\sources\c99\common\doprnt.c: 665:    g = u;
  1605   000AC6  C0D8  F0D4         	movff	efgtoa@u,efgtoa@g
  1606   000ACA  C0D9  F0D5         	movff	efgtoa@u+1,efgtoa@g+1
  1607   000ACE  C0DA  F0D6         	movff	efgtoa@u+2,efgtoa@g+2
  1608   000AD2  C0DB  F0D7         	movff	efgtoa@u+3,efgtoa@g+3
  1609                           
  1610                           ;C:\Program Files\Microchip\xc8\v2.46\pic\sources\c99\common\doprnt.c: 666:   }
  1611   000AD6  EFC4  F005         	goto	l745
  1612   000ADA                     l2621:
  1613                           
  1614                           ;C:\Program Files\Microchip\xc8\v2.46\pic\sources\c99\common\doprnt.c: 669:     u.f = u.
      +                          f/10.0;
  1615   000ADA  C0D8  F001         	movff	efgtoa@u,___fldiv@b
  1616   000ADE  C0D9  F002         	movff	efgtoa@u+1,___fldiv@b+1
  1617   000AE2  C0DA  F003         	movff	efgtoa@u+2,___fldiv@b+2
  1618   000AE6  C0DB  F004         	movff	efgtoa@u+3,___fldiv@b+3
  1619   000AEA  0E00               	movlw	0
  1620   000AEC  6E05               	movwf	___fldiv@a^0,c
  1621   000AEE  0E00               	movlw	0
  1622   000AF0  6E06               	movwf	(___fldiv@a+1)^0,c
  1623   000AF2  0E20               	movlw	32
  1624   000AF4  6E07               	movwf	(___fldiv@a+2)^0,c
  1625   000AF6  0E41               	movlw	65
  1626   000AF8  6E08               	movwf	(___fldiv@a+3)^0,c
  1627   000AFA  EC54  F00D         	call	___fldiv	;wreg free
  1628   000AFE  C001  F0D8         	movff	?___fldiv,efgtoa@u
  1629   000B02  C002  F0D9         	movff	?___fldiv+1,efgtoa@u+1
  1630   000B06  C003  F0DA         	movff	?___fldiv+2,efgtoa@u+2
  1631   000B0A  C004  F0DB         	movff	?___fldiv+3,efgtoa@u+3
  1632   000B0E                     
  1633                           ;C:\Program Files\Microchip\xc8\v2.46\pic\sources\c99\common\doprnt.c: 670:     --e;
  1634   000B0E  0100               	movlb	0	; () banked
  1635   000B10  07BF               	decf	efgtoa@e& (0+255),f,b
  1636   000B12  A0D8               	btfss	status,0,c
  1637   000B14  07C0               	decf	(efgtoa@e+1)& (0+255),f,b
  1638   000B16                     
  1639                           ; BSR set to: 0
  1640                           ;C:\Program Files\Microchip\xc8\v2.46\pic\sources\c99\common\doprnt.c: 671:     if ((lab
      +                          s((g).u-(u).u) <= 1)) {
  1641   000B16  51D8               	movf	efgtoa@u& (0+255),w,b
  1642   000B18  5DD4               	subwf	efgtoa@g& (0+255),w,b
  1643   000B1A  6E01               	movwf	labs@a^0,c
  1644   000B1C  51D9               	movf	(efgtoa@u+1)& (0+255),w,b
  1645   000B1E  59D5               	subwfb	(efgtoa@g+1)& (0+255),w,b
  1646   000B20  6E02               	movwf	(labs@a+1)^0,c
  1647   000B22  51DA               	movf	(efgtoa@u+2)& (0+255),w,b
  1648   000B24  59D6               	subwfb	(efgtoa@g+2)& (0+255),w,b
  1649   000B26  6E03               	movwf	(labs@a+2)^0,c
  1650   000B28  51DB               	movf	(efgtoa@u+3)& (0+255),w,b
  1651   000B2A  59D7               	subwfb	(efgtoa@g+3)& (0+255),w,b
  1652   000B2C  6E04               	movwf	(labs@a+3)^0,c
  1653   000B2E  ECEA  F013         	call	_labs	;wreg free
  1654   000B32  BE04               	btfsc	(?_labs+3)^0,7,c
  1655   000B34  EFA9  F005         	goto	u2990
  1656   000B38  5004               	movf	(?_labs+3)^0,w,c
  1657   000B3A  1003               	iorwf	(?_labs+2)^0,w,c
  1658   000B3C  1002               	iorwf	(?_labs+1)^0,w,c
  1659   000B3E  E107               	bnz	u2991
  1660   000B40  0E02               	movlw	2
  1661   000B42  5C01               	subwf	?_labs^0,w,c
  1662   000B44  B0D8               	btfsc	status,0,c
  1663   000B46  EFA7  F005         	goto	u2991
  1664   000B4A  EFA9  F005         	goto	u2990
  1665   000B4E                     u2991:
  1666   000B4E  EFAB  F005         	goto	l2629
  1667   000B52                     u2990:
  1668   000B52  EF63  F005         	goto	l2619
  1669   000B56                     l2629:
  1670                           
  1671                           ;C:\Program Files\Microchip\xc8\v2.46\pic\sources\c99\common\doprnt.c: 668:    while (g.
      +                          f < u.f) {
  1672   000B56  C0D4  F01A         	movff	efgtoa@g,___flge@ff1
  1673   000B5A  C0D5  F01B         	movff	efgtoa@g+1,___flge@ff1+1
  1674   000B5E  C0D6  F01C         	movff	efgtoa@g+2,___flge@ff1+2
  1675   000B62  C0D7  F01D         	movff	efgtoa@g+3,___flge@ff1+3
  1676   000B66  C0D8  F01E         	movff	efgtoa@u,___flge@ff2
  1677   000B6A  C0D9  F01F         	movff	efgtoa@u+1,___flge@ff2+1
  1678   000B6E  C0DA  F020         	movff	efgtoa@u+2,___flge@ff2+2
  1679   000B72  C0DB  F021         	movff	efgtoa@u+3,___flge@ff2+3
  1680   000B76  EC79  F011         	call	___flge	;wreg free
  1681   000B7A  A0D8               	btfss	status,0,c
  1682   000B7C  EFC2  F005         	goto	u3001
  1683   000B80  EFC4  F005         	goto	u3000
  1684   000B84                     u3001:
  1685   000B84  EF6D  F005         	goto	l2621
  1686   000B88                     u3000:
  1687   000B88                     l745:
  1688                           
  1689                           ;C:\Program Files\Microchip\xc8\v2.46\pic\sources\c99\common\doprnt.c: 683:  mode = c;
  1690   000B88  C034  F0B9         	movff	efgtoa@c,efgtoa@mode
  1691                           
  1692                           ;C:\Program Files\Microchip\xc8\v2.46\pic\sources\c99\common\doprnt.c: 685:     nmode = 
      +                          mode;
  1693   000B8C  C0B9  F0BA         	movff	efgtoa@mode,efgtoa@nmode
  1694   000B90                     
  1695                           ;C:\Program Files\Microchip\xc8\v2.46\pic\sources\c99\common\doprnt.c: 695:  {;C:\Progra
      +                          m Files\Microchip\xc8\v2.46\pic\sources\c99\common\doprnt.c: 696:         p = (prec < 0)
      +                           ? 6 : prec;
  1696   000B90  BE54               	btfsc	(_prec+1)^0,7,c
  1697   000B92  EFCD  F005         	goto	u3011
  1698   000B96  EFCF  F005         	goto	u3010
  1699   000B9A                     u3011:
  1700   000B9A  EFD5  F005         	goto	l2635
  1701   000B9E                     u3010:
  1702   000B9E  C053  F0B2         	movff	_prec,efgtoa@p
  1703   000BA2  C054  F0B3         	movff	_prec+1,efgtoa@p+1
  1704   000BA6  EFDA  F005         	goto	l2637
  1705   000BAA                     l2635:
  1706   000BAA  0E00               	movlw	0
  1707   000BAC  0100               	movlb	0	; () banked
  1708   000BAE  6FB3               	movwf	(efgtoa@p+1)& (0+255),b
  1709   000BB0  0E06               	movlw	6
  1710   000BB2  6FB2               	movwf	efgtoa@p& (0+255),b
  1711   000BB4                     l2637:
  1712                           
  1713                           ;C:\Program Files\Microchip\xc8\v2.46\pic\sources\c99\common\doprnt.c: 697:     };C:\Pro
      +                          gram Files\Microchip\xc8\v2.46\pic\sources\c99\common\doprnt.c: 711:     m = p;
  1714   000BB4  C0B2  F0BD         	movff	efgtoa@p,efgtoa@m
  1715   000BB8  C0B3  F0BE         	movff	efgtoa@p+1,efgtoa@m+1
  1716   000BBC                     
  1717                           ;C:\Program Files\Microchip\xc8\v2.46\pic\sources\c99\common\doprnt.c: 715:  {;C:\Progra
      +                          m Files\Microchip\xc8\v2.46\pic\sources\c99\common\doprnt.c: 716:         ++m;
  1718   000BBC  0100               	movlb	0	; () banked
  1719   000BBE  4BBD               	infsnz	efgtoa@m& (0+255),f,b
  1720   000BC0  2BBE               	incf	(efgtoa@m+1)& (0+255),f,b
  1721   000BC2                     
  1722                           ; BSR set to: 0
  1723                           ;C:\Program Files\Microchip\xc8\v2.46\pic\sources\c99\common\doprnt.c: 717:     };C:\Pro
      +                          gram Files\Microchip\xc8\v2.46\pic\sources\c99\common\doprnt.c: 721:     if (nmode == 'f
      +                          ') {
  1724   000BC2  0E66               	movlw	102
  1725   000BC4  19BA               	xorwf	efgtoa@nmode& (0+255),w,b
  1726   000BC6  A4D8               	btfss	status,2,c
  1727   000BC8  EFE8  F005         	goto	u3021
  1728   000BCC  EFEA  F005         	goto	u3020
  1729   000BD0                     u3021:
  1730   000BD0  EF0A  F006         	goto	l2651
  1731   000BD4                     u3020:
  1732   000BD4                     
  1733                           ; BSR set to: 0
  1734                           ;C:\Program Files\Microchip\xc8\v2.46\pic\sources\c99\common\doprnt.c: 722:         if (
      +                          e < 0) {
  1735   000BD4  BFC0               	btfsc	(efgtoa@e+1)& (0+255),7,b
  1736   000BD6  EFF1  F005         	goto	u3030
  1737   000BDA  EFEF  F005         	goto	u3031
  1738   000BDE                     u3031:
  1739   000BDE  EFFD  F005         	goto	l2647
  1740   000BE2                     u3030:
  1741   000BE2                     
  1742                           ; BSR set to: 0
  1743                           ;C:\Program Files\Microchip\xc8\v2.46\pic\sources\c99\common\doprnt.c: 723:             
      +                          u.f = 1.0;
  1744   000BE2  0E00               	movlw	0
  1745   000BE4  6FD8               	movwf	efgtoa@u& (0+255),b
  1746   000BE6  0E00               	movlw	0
  1747   000BE8  6FD9               	movwf	(efgtoa@u+1)& (0+255),b
  1748   000BEA  0E80               	movlw	128
  1749   000BEC  6FDA               	movwf	(efgtoa@u+2)& (0+255),b
  1750   000BEE  0E3F               	movlw	63
  1751   000BF0  6FDB               	movwf	(efgtoa@u+3)& (0+255),b
  1752                           
  1753                           ;C:\Program Files\Microchip\xc8\v2.46\pic\sources\c99\common\doprnt.c: 724:             
      +                          e = 0;
  1754   000BF2  0E00               	movlw	0
  1755   000BF4  6FC0               	movwf	(efgtoa@e+1)& (0+255),b
  1756   000BF6  0E00               	movlw	0
  1757   000BF8  6FBF               	movwf	efgtoa@e& (0+255),b
  1758   000BFA                     l2647:
  1759                           
  1760                           ; BSR set to: 0
  1761                           ;C:\Program Files\Microchip\xc8\v2.46\pic\sources\c99\common\doprnt.c: 726:         if (
      +                          !(mode == 'g')) {
  1762   000BFA  0E67               	movlw	103
  1763   000BFC  19B9               	xorwf	efgtoa@mode& (0+255),w,b
  1764   000BFE  B4D8               	btfsc	status,2,c
  1765   000C00  EF04  F006         	goto	u3041
  1766   000C04  EF06  F006         	goto	u3040
  1767   000C08                     u3041:
  1768   000C08  EF0A  F006         	goto	l2651
  1769   000C0C                     u3040:
  1770   000C0C                     
  1771                           ; BSR set to: 0
  1772                           ;C:\Program Files\Microchip\xc8\v2.46\pic\sources\c99\common\doprnt.c: 727:             
      +                          m += e;
  1773   000C0C  51BF               	movf	efgtoa@e& (0+255),w,b
  1774   000C0E  27BD               	addwf	efgtoa@m& (0+255),f,b
  1775   000C10  51C0               	movf	(efgtoa@e+1)& (0+255),w,b
  1776   000C12  23BE               	addwfc	(efgtoa@m+1)& (0+255),f,b
  1777   000C14                     l2651:
  1778                           
  1779                           ; BSR set to: 0
  1780                           ;C:\Program Files\Microchip\xc8\v2.46\pic\sources\c99\common\doprnt.c: 733:     i = 0;
  1781   000C14  0E00               	movlw	0
  1782   000C16  6FC8               	movwf	(efgtoa@i+1)& (0+255),b
  1783   000C18  0E00               	movlw	0
  1784   000C1A  6FC7               	movwf	efgtoa@i& (0+255),b
  1785   000C1C                     
  1786                           ; BSR set to: 0
  1787                           ;C:\Program Files\Microchip\xc8\v2.46\pic\sources\c99\common\doprnt.c: 734:     h = g.f;
  1788   000C1C  C0D4  F0C9         	movff	efgtoa@g,efgtoa@h
  1789   000C20  C0D5  F0CA         	movff	efgtoa@g+1,efgtoa@h+1
  1790   000C24  C0D6  F0CB         	movff	efgtoa@g+2,efgtoa@h+2
  1791   000C28  C0D7  F0CC         	movff	efgtoa@g+3,efgtoa@h+3
  1792   000C2C                     
  1793                           ; BSR set to: 0
  1794                           ;C:\Program Files\Microchip\xc8\v2.46\pic\sources\c99\common\doprnt.c: 735:     ou = u;
  1795   000C2C  C0D8  F0C3         	movff	efgtoa@u,efgtoa@ou
  1796   000C30  C0D9  F0C4         	movff	efgtoa@u+1,efgtoa@ou+1
  1797   000C34  C0DA  F0C5         	movff	efgtoa@u+2,efgtoa@ou+2
  1798   000C38  C0DB  F0C6         	movff	efgtoa@u+3,efgtoa@ou+3
  1799                           
  1800                           ;C:\Program Files\Microchip\xc8\v2.46\pic\sources\c99\common\doprnt.c: 736:     while (i
      +                           < m) {
  1801   000C3C  EF9B  F006         	goto	l2665
  1802   000C40                     l2657:
  1803                           
  1804                           ; BSR set to: 0
  1805                           ;C:\Program Files\Microchip\xc8\v2.46\pic\sources\c99\common\doprnt.c: 737:         l = 
      +                          floorf(h/u.f);
  1806   000C40  C0C9  F001         	movff	efgtoa@h,___fldiv@b
  1807   000C44  C0CA  F002         	movff	efgtoa@h+1,___fldiv@b+1
  1808   000C48  C0CB  F003         	movff	efgtoa@h+2,___fldiv@b+2
  1809   000C4C  C0CC  F004         	movff	efgtoa@h+3,___fldiv@b+3
  1810   000C50  C0D8  F005         	movff	efgtoa@u,___fldiv@a
  1811   000C54  C0D9  F006         	movff	efgtoa@u+1,___fldiv@a+1
  1812   000C58  C0DA  F007         	movff	efgtoa@u+2,___fldiv@a+2
  1813   000C5C  C0DB  F008         	movff	efgtoa@u+3,___fldiv@a+3
  1814   000C60  EC54  F00D         	call	___fldiv	;wreg free
  1815   000C64  C001  F01A         	movff	?___fldiv,floorf@x
  1816   000C68  C002  F01B         	movff	?___fldiv+1,floorf@x+1
  1817   000C6C  C003  F01C         	movff	?___fldiv+2,floorf@x+2
  1818   000C70  C004  F01D         	movff	?___fldiv+3,floorf@x+3
  1819   000C74  EC21  F00F         	call	_floorf	;wreg free
  1820   000C78  C01A  F0CD         	movff	?_floorf,efgtoa@l
  1821   000C7C  C01B  F0CE         	movff	?_floorf+1,efgtoa@l+1
  1822   000C80  C01C  F0CF         	movff	?_floorf+2,efgtoa@l+2
  1823   000C84  C01D  F0D0         	movff	?_floorf+3,efgtoa@l+3
  1824                           
  1825                           ;C:\Program Files\Microchip\xc8\v2.46\pic\sources\c99\common\doprnt.c: 738:         d = 
      +                          (int)l;
  1826   000C88  C0CD  F001         	movff	efgtoa@l,___fltol@f1
  1827   000C8C  C0CE  F002         	movff	efgtoa@l+1,___fltol@f1+1
  1828   000C90  C0CF  F003         	movff	efgtoa@l+2,___fltol@f1+2
  1829   000C94  C0D0  F004         	movff	efgtoa@l+3,___fltol@f1+3
  1830   000C98  ECF6  F010         	call	___fltol	;wreg free
  1831   000C9C  C001  F0BB         	movff	?___fltol,efgtoa@d
  1832   000CA0  C002  F0BC         	movff	?___fltol+1,efgtoa@d+1
  1833   000CA4                     
  1834                           ;C:\Program Files\Microchip\xc8\v2.46\pic\sources\c99\common\doprnt.c: 739:         h -=
      +                           l*u.f;
  1835   000CA4  C0C9  F01A         	movff	efgtoa@h,___flsub@b
  1836   000CA8  C0CA  F01B         	movff	efgtoa@h+1,___flsub@b+1
  1837   000CAC  C0CB  F01C         	movff	efgtoa@h+2,___flsub@b+2
  1838   000CB0  C0CC  F01D         	movff	efgtoa@h+3,___flsub@b+3
  1839   000CB4  C0CD  F005         	movff	efgtoa@l,___flmul@a
  1840   000CB8  C0CE  F006         	movff	efgtoa@l+1,___flmul@a+1
  1841   000CBC  C0CF  F007         	movff	efgtoa@l+2,___flmul@a+2
  1842   000CC0  C0D0  F008         	movff	efgtoa@l+3,___flmul@a+3
  1843   000CC4  C0D8  F001         	movff	efgtoa@u,___flmul@b
  1844   000CC8  C0D9  F002         	movff	efgtoa@u+1,___flmul@b+1
  1845   000CCC  C0DA  F003         	movff	efgtoa@u+2,___flmul@b+2
  1846   000CD0  C0DB  F004         	movff	efgtoa@u+3,___flmul@b+3
  1847   000CD4  EC3F  F00B         	call	___flmul	;wreg free
  1848   000CD8  C001  F01E         	movff	?___flmul,___flsub@a
  1849   000CDC  C002  F01F         	movff	?___flmul+1,___flsub@a+1
  1850   000CE0  C003  F020         	movff	?___flmul+2,___flsub@a+2
  1851   000CE4  C004  F021         	movff	?___flmul+3,___flsub@a+3
  1852   000CE8  EC15  F014         	call	___flsub	;wreg free
  1853   000CEC  C01A  F0C9         	movff	?___flsub,efgtoa@h
  1854   000CF0  C01B  F0CA         	movff	?___flsub+1,efgtoa@h+1
  1855   000CF4  C01C  F0CB         	movff	?___flsub+2,efgtoa@h+2
  1856   000CF8  C01D  F0CC         	movff	?___flsub+3,efgtoa@h+3
  1857   000CFC                     
  1858                           ;C:\Program Files\Microchip\xc8\v2.46\pic\sources\c99\common\doprnt.c: 740:         u.f 
      +                          = u.f/10.0;
  1859   000CFC  C0D8  F001         	movff	efgtoa@u,___fldiv@b
  1860   000D00  C0D9  F002         	movff	efgtoa@u+1,___fldiv@b+1
  1861   000D04  C0DA  F003         	movff	efgtoa@u+2,___fldiv@b+2
  1862   000D08  C0DB  F004         	movff	efgtoa@u+3,___fldiv@b+3
  1863   000D0C  0E00               	movlw	0
  1864   000D0E  6E05               	movwf	___fldiv@a^0,c
  1865   000D10  0E00               	movlw	0
  1866   000D12  6E06               	movwf	(___fldiv@a+1)^0,c
  1867   000D14  0E20               	movlw	32
  1868   000D16  6E07               	movwf	(___fldiv@a+2)^0,c
  1869   000D18  0E41               	movlw	65
  1870   000D1A  6E08               	movwf	(___fldiv@a+3)^0,c
  1871   000D1C  EC54  F00D         	call	___fldiv	;wreg free
  1872   000D20  C001  F0D8         	movff	?___fldiv,efgtoa@u
  1873   000D24  C002  F0D9         	movff	?___fldiv+1,efgtoa@u+1
  1874   000D28  C003  F0DA         	movff	?___fldiv+2,efgtoa@u+2
  1875   000D2C  C004  F0DB         	movff	?___fldiv+3,efgtoa@u+3
  1876   000D30                     
  1877                           ;C:\Program Files\Microchip\xc8\v2.46\pic\sources\c99\common\doprnt.c: 741:         ++i;
  1878   000D30  0100               	movlb	0	; () banked
  1879   000D32  4BC7               	infsnz	efgtoa@i& (0+255),f,b
  1880   000D34  2BC8               	incf	(efgtoa@i+1)& (0+255),f,b
  1881   000D36                     l2665:
  1882                           
  1883                           ; BSR set to: 0
  1884                           ;C:\Program Files\Microchip\xc8\v2.46\pic\sources\c99\common\doprnt.c: 736:     while (i
      +                           < m) {
  1885   000D36  51BD               	movf	efgtoa@m& (0+255),w,b
  1886   000D38  5DC7               	subwf	efgtoa@i& (0+255),w,b
  1887   000D3A  51C8               	movf	(efgtoa@i+1)& (0+255),w,b
  1888   000D3C  0A80               	xorlw	128
  1889   000D3E  6E35               	movwf	??_efgtoa^0,c
  1890   000D40  51BE               	movf	(efgtoa@m+1)& (0+255),w,b
  1891   000D42  0A80               	xorlw	128
  1892   000D44  5835               	subwfb	??_efgtoa^0,w,c
  1893   000D46  A0D8               	btfss	status,0,c
  1894   000D48  EFA8  F006         	goto	u3051
  1895   000D4C  EFAA  F006         	goto	u3050
  1896   000D50                     u3051:
  1897   000D50  EF20  F006         	goto	l2657
  1898   000D54                     u3050:
  1899   000D54                     
  1900                           ; BSR set to: 0
  1901                           ;C:\Program Files\Microchip\xc8\v2.46\pic\sources\c99\common\doprnt.c: 745:     l = u.f*
      +                          5.0;
  1902   000D54  C0D8  F001         	movff	efgtoa@u,___flmul@b
  1903   000D58  C0D9  F002         	movff	efgtoa@u+1,___flmul@b+1
  1904   000D5C  C0DA  F003         	movff	efgtoa@u+2,___flmul@b+2
  1905   000D60  C0DB  F004         	movff	efgtoa@u+3,___flmul@b+3
  1906   000D64  0E00               	movlw	0
  1907   000D66  6E05               	movwf	___flmul@a^0,c
  1908   000D68  0E00               	movlw	0
  1909   000D6A  6E06               	movwf	(___flmul@a+1)^0,c
  1910   000D6C  0EA0               	movlw	160
  1911   000D6E  6E07               	movwf	(___flmul@a+2)^0,c
  1912   000D70  0E40               	movlw	64
  1913   000D72  6E08               	movwf	(___flmul@a+3)^0,c
  1914   000D74  EC3F  F00B         	call	___flmul	;wreg free
  1915   000D78  C001  F0CD         	movff	?___flmul,efgtoa@l
  1916   000D7C  C002  F0CE         	movff	?___flmul+1,efgtoa@l+1
  1917   000D80  C003  F0CF         	movff	?___flmul+2,efgtoa@l+2
  1918   000D84  C004  F0D0         	movff	?___flmul+3,efgtoa@l+3
  1919   000D88                     
  1920                           ;C:\Program Files\Microchip\xc8\v2.46\pic\sources\c99\common\doprnt.c: 746:     if (h < 
      +                          l) {
  1921   000D88  C0C9  F01A         	movff	efgtoa@h,___flge@ff1
  1922   000D8C  C0CA  F01B         	movff	efgtoa@h+1,___flge@ff1+1
  1923   000D90  C0CB  F01C         	movff	efgtoa@h+2,___flge@ff1+2
  1924   000D94  C0CC  F01D         	movff	efgtoa@h+3,___flge@ff1+3
  1925   000D98  C0CD  F01E         	movff	efgtoa@l,___flge@ff2
  1926   000D9C  C0CE  F01F         	movff	efgtoa@l+1,___flge@ff2+1
  1927   000DA0  C0CF  F020         	movff	efgtoa@l+2,___flge@ff2+2
  1928   000DA4  C0D0  F021         	movff	efgtoa@l+3,___flge@ff2+3
  1929   000DA8  EC79  F011         	call	___flge	;wreg free
  1930   000DAC  B0D8               	btfsc	status,0,c
  1931   000DAE  EFDB  F006         	goto	u3061
  1932   000DB2  EFDD  F006         	goto	u3060
  1933   000DB6                     u3061:
  1934   000DB6  EFE8  F006         	goto	l2673
  1935   000DBA                     u3060:
  1936   000DBA                     
  1937                           ;C:\Program Files\Microchip\xc8\v2.46\pic\sources\c99\common\doprnt.c: 747:         l = 
      +                          0.0;
  1938   000DBA  0E00               	movlw	0
  1939   000DBC  0100               	movlb	0	; () banked
  1940   000DBE  6FCD               	movwf	efgtoa@l& (0+255),b
  1941   000DC0  0E00               	movlw	0
  1942   000DC2  6FCE               	movwf	(efgtoa@l+1)& (0+255),b
  1943   000DC4  0E00               	movlw	0
  1944   000DC6  6FCF               	movwf	(efgtoa@l+2)& (0+255),b
  1945   000DC8  0E00               	movlw	0
  1946   000DCA  6FD0               	movwf	(efgtoa@l+3)& (0+255),b
  1947                           
  1948                           ;C:\Program Files\Microchip\xc8\v2.46\pic\sources\c99\common\doprnt.c: 748:     } else {
  1949   000DCC  EF11  F007         	goto	l2679
  1950   000DD0                     l2673:
  1951                           
  1952                           ;C:\Program Files\Microchip\xc8\v2.46\pic\sources\c99\common\doprnt.c: 750:         if (
      +                          (h == l) && !(d % 2)) {
  1953   000DD0  C0C9  F001         	movff	efgtoa@h,___fleq@ff1
  1954   000DD4  C0CA  F002         	movff	efgtoa@h+1,___fleq@ff1+1
  1955   000DD8  C0CB  F003         	movff	efgtoa@h+2,___fleq@ff1+2
  1956   000DDC  C0CC  F004         	movff	efgtoa@h+3,___fleq@ff1+3
  1957   000DE0  C0CD  F005         	movff	efgtoa@l,___fleq@ff2
  1958   000DE4  C0CE  F006         	movff	efgtoa@l+1,___fleq@ff2+1
  1959   000DE8  C0CF  F007         	movff	efgtoa@l+2,___fleq@ff2+2
  1960   000DEC  C0D0  F008         	movff	efgtoa@l+3,___fleq@ff2+3
  1961   000DF0  ECDF  F012         	call	___fleq	;wreg free
  1962   000DF4  A0D8               	btfss	status,0,c
  1963   000DF6  EFFF  F006         	goto	u3071
  1964   000DFA  EF01  F007         	goto	u3070
  1965   000DFE                     u3071:
  1966   000DFE  EF11  F007         	goto	l2679
  1967   000E02                     u3070:
  1968   000E02  0100               	movlb	0	; () banked
  1969   000E04  B1BB               	btfsc	efgtoa@d& (0+255),0,b
  1970   000E06  EF07  F007         	goto	u3081
  1971   000E0A  EF09  F007         	goto	u3080
  1972   000E0E                     u3081:
  1973   000E0E  EF11  F007         	goto	l2679
  1974   000E12                     u3080:
  1975   000E12                     
  1976                           ; BSR set to: 0
  1977                           ;C:\Program Files\Microchip\xc8\v2.46\pic\sources\c99\common\doprnt.c: 751:             
      +                          l = 0.0;
  1978   000E12  0E00               	movlw	0
  1979   000E14  6FCD               	movwf	efgtoa@l& (0+255),b
  1980   000E16  0E00               	movlw	0
  1981   000E18  6FCE               	movwf	(efgtoa@l+1)& (0+255),b
  1982   000E1A  0E00               	movlw	0
  1983   000E1C  6FCF               	movwf	(efgtoa@l+2)& (0+255),b
  1984   000E1E  0E00               	movlw	0
  1985   000E20  6FD0               	movwf	(efgtoa@l+3)& (0+255),b
  1986   000E22                     l2679:
  1987                           
  1988                           ;C:\Program Files\Microchip\xc8\v2.46\pic\sources\c99\common\doprnt.c: 756:     h = g.f 
      +                          + l;
  1989   000E22  C0D4  F001         	movff	efgtoa@g,___fladd@b
  1990   000E26  C0D5  F002         	movff	efgtoa@g+1,___fladd@b+1
  1991   000E2A  C0D6  F003         	movff	efgtoa@g+2,___fladd@b+2
  1992   000E2E  C0D7  F004         	movff	efgtoa@g+3,___fladd@b+3
  1993   000E32  C0CD  F005         	movff	efgtoa@l,___fladd@a
  1994   000E36  C0CE  F006         	movff	efgtoa@l+1,___fladd@a+1
  1995   000E3A  C0CF  F007         	movff	efgtoa@l+2,___fladd@a+2
  1996   000E3E  C0D0  F008         	movff	efgtoa@l+3,___fladd@a+3
  1997   000E42  ECDF  F008         	call	___fladd	;wreg free
  1998   000E46  C001  F0C9         	movff	?___fladd,efgtoa@h
  1999   000E4A  C002  F0CA         	movff	?___fladd+1,efgtoa@h+1
  2000   000E4E  C003  F0CB         	movff	?___fladd+2,efgtoa@h+2
  2001   000E52  C004  F0CC         	movff	?___fladd+3,efgtoa@h+3
  2002   000E56                     
  2003                           ;C:\Program Files\Microchip\xc8\v2.46\pic\sources\c99\common\doprnt.c: 758:  if (h >= (o
      +                          u.f*10.0)) {
  2004   000E56  C0C9  F01A         	movff	efgtoa@h,___flge@ff1
  2005   000E5A  C0CA  F01B         	movff	efgtoa@h+1,___flge@ff1+1
  2006   000E5E  C0CB  F01C         	movff	efgtoa@h+2,___flge@ff1+2
  2007   000E62  C0CC  F01D         	movff	efgtoa@h+3,___flge@ff1+3
  2008   000E66  0E00               	movlw	0
  2009   000E68  6E05               	movwf	___flmul@a^0,c
  2010   000E6A  0E00               	movlw	0
  2011   000E6C  6E06               	movwf	(___flmul@a+1)^0,c
  2012   000E6E  0E20               	movlw	32
  2013   000E70  6E07               	movwf	(___flmul@a+2)^0,c
  2014   000E72  0E41               	movlw	65
  2015   000E74  6E08               	movwf	(___flmul@a+3)^0,c
  2016   000E76  C0C3  F001         	movff	efgtoa@ou,___flmul@b
  2017   000E7A  C0C4  F002         	movff	efgtoa@ou+1,___flmul@b+1
  2018   000E7E  C0C5  F003         	movff	efgtoa@ou+2,___flmul@b+2
  2019   000E82  C0C6  F004         	movff	efgtoa@ou+3,___flmul@b+3
  2020   000E86  EC3F  F00B         	call	___flmul	;wreg free
  2021   000E8A  C001  F01E         	movff	?___flmul,___flge@ff2
  2022   000E8E  C002  F01F         	movff	?___flmul+1,___flge@ff2+1
  2023   000E92  C003  F020         	movff	?___flmul+2,___flge@ff2+2
  2024   000E96  C004  F021         	movff	?___flmul+3,___flge@ff2+3
  2025   000E9A  EC79  F011         	call	___flge	;wreg free
  2026   000E9E  A0D8               	btfss	status,0,c
  2027   000EA0  EF54  F007         	goto	u3091
  2028   000EA4  EF56  F007         	goto	u3090
  2029   000EA8                     u3091:
  2030   000EA8  EF7F  F007         	goto	l2691
  2031   000EAC                     u3090:
  2032   000EAC                     
  2033                           ;C:\Program Files\Microchip\xc8\v2.46\pic\sources\c99\common\doprnt.c: 759:   e++;
  2034   000EAC  0100               	movlb	0	; () banked
  2035   000EAE  4BBF               	infsnz	efgtoa@e& (0+255),f,b
  2036   000EB0  2BC0               	incf	(efgtoa@e+1)& (0+255),f,b
  2037   000EB2                     
  2038                           ; BSR set to: 0
  2039                           ;C:\Program Files\Microchip\xc8\v2.46\pic\sources\c99\common\doprnt.c: 760:   ou.f *= 10
      +                          .0;
  2040   000EB2  C0C3  F001         	movff	efgtoa@ou,___flmul@b
  2041   000EB6  C0C4  F002         	movff	efgtoa@ou+1,___flmul@b+1
  2042   000EBA  C0C5  F003         	movff	efgtoa@ou+2,___flmul@b+2
  2043   000EBE  C0C6  F004         	movff	efgtoa@ou+3,___flmul@b+3
  2044   000EC2  0E00               	movlw	0
  2045   000EC4  6E05               	movwf	___flmul@a^0,c
  2046   000EC6  0E00               	movlw	0
  2047   000EC8  6E06               	movwf	(___flmul@a+1)^0,c
  2048   000ECA  0E20               	movlw	32
  2049   000ECC  6E07               	movwf	(___flmul@a+2)^0,c
  2050   000ECE  0E41               	movlw	65
  2051   000ED0  6E08               	movwf	(___flmul@a+3)^0,c
  2052   000ED2  EC3F  F00B         	call	___flmul	;wreg free
  2053   000ED6  C001  F0C3         	movff	?___flmul,efgtoa@ou
  2054   000EDA  C002  F0C4         	movff	?___flmul+1,efgtoa@ou+1
  2055   000EDE  C003  F0C5         	movff	?___flmul+2,efgtoa@ou+2
  2056   000EE2  C004  F0C6         	movff	?___flmul+3,efgtoa@ou+3
  2057   000EE6                     
  2058                           ;C:\Program Files\Microchip\xc8\v2.46\pic\sources\c99\common\doprnt.c: 762:   if (nmode 
      +                          == 'f') {
  2059   000EE6  0E66               	movlw	102
  2060   000EE8  0100               	movlb	0	; () banked
  2061   000EEA  19BA               	xorwf	efgtoa@nmode& (0+255),w,b
  2062   000EEC  A4D8               	btfss	status,2,c
  2063   000EEE  EF7B  F007         	goto	u3101
  2064   000EF2  EF7D  F007         	goto	u3100
  2065   000EF6                     u3101:
  2066   000EF6  EF7F  F007         	goto	l2691
  2067   000EFA                     u3100:
  2068   000EFA                     
  2069                           ; BSR set to: 0
  2070                           ;C:\Program Files\Microchip\xc8\v2.46\pic\sources\c99\common\doprnt.c: 764:    m++;
  2071   000EFA  4BBD               	infsnz	efgtoa@m& (0+255),f,b
  2072   000EFC  2BBE               	incf	(efgtoa@m+1)& (0+255),f,b
  2073   000EFE                     l2691:
  2074                           
  2075                           ;C:\Program Files\Microchip\xc8\v2.46\pic\sources\c99\common\doprnt.c: 770:     u = ou;
  2076   000EFE  C0C3  F0D8         	movff	efgtoa@ou,efgtoa@u
  2077   000F02  C0C4  F0D9         	movff	efgtoa@ou+1,efgtoa@u+1
  2078   000F06  C0C5  F0DA         	movff	efgtoa@ou+2,efgtoa@u+2
  2079   000F0A  C0C6  F0DB         	movff	efgtoa@ou+3,efgtoa@u+3
  2080   000F0E                     
  2081                           ;C:\Program Files\Microchip\xc8\v2.46\pic\sources\c99\common\doprnt.c: 774:  ne = e;
  2082   000F0E  C0BF  F0B0         	movff	efgtoa@e,efgtoa@ne
  2083   000F12  C0C0  F0B1         	movff	efgtoa@e+1,efgtoa@ne+1
  2084   000F16                     
  2085                           ;C:\Program Files\Microchip\xc8\v2.46\pic\sources\c99\common\doprnt.c: 776:     pp = 0;
  2086   000F16  0E00               	movlw	0
  2087   000F18  0100               	movlb	0	; () banked
  2088   000F1A  6FB8               	movwf	efgtoa@pp& (0+255),b
  2089   000F1C                     
  2090                           ; BSR set to: 0
  2091                           ;C:\Program Files\Microchip\xc8\v2.46\pic\sources\c99\common\doprnt.c: 777:     t = 0;
  2092   000F1C  0E00               	movlw	0
  2093   000F1E  6FB5               	movwf	(efgtoa@t+1)& (0+255),b
  2094   000F20  0E00               	movlw	0
  2095   000F22  6FB4               	movwf	efgtoa@t& (0+255),b
  2096   000F24                     
  2097                           ; BSR set to: 0
  2098                           ;C:\Program Files\Microchip\xc8\v2.46\pic\sources\c99\common\doprnt.c: 778:     i = 0;
  2099   000F24  0E00               	movlw	0
  2100   000F26  6FC8               	movwf	(efgtoa@i+1)& (0+255),b
  2101   000F28  0E00               	movlw	0
  2102   000F2A  6FC7               	movwf	efgtoa@i& (0+255),b
  2103                           
  2104                           ;C:\Program Files\Microchip\xc8\v2.46\pic\sources\c99\common\doprnt.c: 779:     while ((
      +                          i < m) && (n < (80 - 5))) {
  2105   000F2C  EF77  F008         	goto	l2741
  2106   000F30                     l2701:
  2107                           
  2108                           ; BSR set to: 0
  2109                           ;C:\Program Files\Microchip\xc8\v2.46\pic\sources\c99\common\doprnt.c: 780:         l = 
      +                          floorf(h/u.f);
  2110   000F30  C0C9  F001         	movff	efgtoa@h,___fldiv@b
  2111   000F34  C0CA  F002         	movff	efgtoa@h+1,___fldiv@b+1
  2112   000F38  C0CB  F003         	movff	efgtoa@h+2,___fldiv@b+2
  2113   000F3C  C0CC  F004         	movff	efgtoa@h+3,___fldiv@b+3
  2114   000F40  C0D8  F005         	movff	efgtoa@u,___fldiv@a
  2115   000F44  C0D9  F006         	movff	efgtoa@u+1,___fldiv@a+1
  2116   000F48  C0DA  F007         	movff	efgtoa@u+2,___fldiv@a+2
  2117   000F4C  C0DB  F008         	movff	efgtoa@u+3,___fldiv@a+3
  2118   000F50  EC54  F00D         	call	___fldiv	;wreg free
  2119   000F54  C001  F01A         	movff	?___fldiv,floorf@x
  2120   000F58  C002  F01B         	movff	?___fldiv+1,floorf@x+1
  2121   000F5C  C003  F01C         	movff	?___fldiv+2,floorf@x+2
  2122   000F60  C004  F01D         	movff	?___fldiv+3,floorf@x+3
  2123   000F64  EC21  F00F         	call	_floorf	;wreg free
  2124   000F68  C01A  F0CD         	movff	?_floorf,efgtoa@l
  2125   000F6C  C01B  F0CE         	movff	?_floorf+1,efgtoa@l+1
  2126   000F70  C01C  F0CF         	movff	?_floorf+2,efgtoa@l+2
  2127   000F74  C01D  F0D0         	movff	?_floorf+3,efgtoa@l+3
  2128                           
  2129                           ;C:\Program Files\Microchip\xc8\v2.46\pic\sources\c99\common\doprnt.c: 781:         d = 
      +                          (int)l > 9 ? 9 : (int)l;
  2130   000F78  C0CD  F001         	movff	efgtoa@l,___fltol@f1
  2131   000F7C  C0CE  F002         	movff	efgtoa@l+1,___fltol@f1+1
  2132   000F80  C0CF  F003         	movff	efgtoa@l+2,___fltol@f1+2
  2133   000F84  C0D0  F004         	movff	efgtoa@l+3,___fltol@f1+3
  2134   000F88  ECF6  F010         	call	___fltol	;wreg free
  2135   000F8C  BE02               	btfsc	(?___fltol+1)^0,7,c
  2136   000F8E  EFD4  F007         	goto	u3110
  2137   000F92  5002               	movf	(?___fltol+1)^0,w,c
  2138   000F94  E107               	bnz	u3111
  2139   000F96  0E0A               	movlw	10
  2140   000F98  5C01               	subwf	?___fltol^0,w,c
  2141   000F9A  B0D8               	btfsc	status,0,c
  2142   000F9C  EFD2  F007         	goto	u3111
  2143   000FA0  EFD4  F007         	goto	u3110
  2144   000FA4                     u3111:
  2145   000FA4  EFE4  F007         	goto	l2705
  2146   000FA8                     u3110:
  2147   000FA8  C0CD  F001         	movff	efgtoa@l,___fltol@f1
  2148   000FAC  C0CE  F002         	movff	efgtoa@l+1,___fltol@f1+1
  2149   000FB0  C0CF  F003         	movff	efgtoa@l+2,___fltol@f1+2
  2150   000FB4  C0D0  F004         	movff	efgtoa@l+3,___fltol@f1+3
  2151   000FB8  ECF6  F010         	call	___fltol	;wreg free
  2152   000FBC  C001  F0BB         	movff	?___fltol,efgtoa@d
  2153   000FC0  C002  F0BC         	movff	?___fltol+1,efgtoa@d+1
  2154   000FC4  EFE9  F007         	goto	l775
  2155   000FC8                     l2705:
  2156   000FC8  0E00               	movlw	0
  2157   000FCA  0100               	movlb	0	; () banked
  2158   000FCC  6FBC               	movwf	(efgtoa@d+1)& (0+255),b
  2159   000FCE  0E09               	movlw	9
  2160   000FD0  6FBB               	movwf	efgtoa@d& (0+255),b
  2161   000FD2                     l775:
  2162                           
  2163                           ;C:\Program Files\Microchip\xc8\v2.46\pic\sources\c99\common\doprnt.c: 792:   {;C:\Progr
      +                          am Files\Microchip\xc8\v2.46\pic\sources\c99\common\doprnt.c: 793:             if (!pp &
      +                          & (ne < 0)) {
  2164   000FD2  0100               	movlb	0	; () banked
  2165   000FD4  51B8               	movf	efgtoa@pp& (0+255),w,b
  2166   000FD6  A4D8               	btfss	status,2,c
  2167   000FD8  EFF0  F007         	goto	u3121
  2168   000FDC  EFF2  F007         	goto	u3120
  2169   000FE0                     u3121:
  2170   000FE0  EF16  F008         	goto	l2725
  2171   000FE4                     u3120:
  2172   000FE4                     
  2173                           ; BSR set to: 0
  2174   000FE4  BFB1               	btfsc	(efgtoa@ne+1)& (0+255),7,b
  2175   000FE6  EFF9  F007         	goto	u3130
  2176   000FEA  EFF7  F007         	goto	u3131
  2177   000FEE                     u3131:
  2178   000FEE  EF16  F008         	goto	l2725
  2179   000FF2                     u3130:
  2180   000FF2                     
  2181                           ; BSR set to: 0
  2182                           ;C:\Program Files\Microchip\xc8\v2.46\pic\sources\c99\common\doprnt.c: 794:             
      +                              dbuf[n++] = '.';
  2183   000FF2  51D2               	movf	efgtoa@n& (0+255),w,b
  2184   000FF4  0F60               	addlw	low _dbuf
  2185   000FF6  6ED9               	movwf	fsr2l,c
  2186   000FF8  6ADA               	clrf	fsr2h,c
  2187   000FFA  0E2E               	movlw	46
  2188   000FFC  6EDF               	movwf	indf2,c
  2189   000FFE                     
  2190                           ; BSR set to: 0
  2191   000FFE  4BD2               	infsnz	efgtoa@n& (0+255),f,b
  2192   001000  2BD3               	incf	(efgtoa@n+1)& (0+255),f,b
  2193   001002                     
  2194                           ; BSR set to: 0
  2195                           ;C:\Program Files\Microchip\xc8\v2.46\pic\sources\c99\common\doprnt.c: 795:             
      +                              --w;
  2196   001002  07C1               	decf	efgtoa@w& (0+255),f,b
  2197   001004  A0D8               	btfss	status,0,c
  2198   001006  07C2               	decf	(efgtoa@w+1)& (0+255),f,b
  2199   001008                     
  2200                           ; BSR set to: 0
  2201                           ;C:\Program Files\Microchip\xc8\v2.46\pic\sources\c99\common\doprnt.c: 796:             
      +                              pp = 1;
  2202   001008  0E01               	movlw	1
  2203   00100A  6FB8               	movwf	efgtoa@pp& (0+255),b
  2204   00100C  EF16  F008         	goto	l2725
  2205   001010                     l2717:
  2206                           
  2207                           ; BSR set to: 0
  2208                           ;C:\Program Files\Microchip\xc8\v2.46\pic\sources\c99\common\doprnt.c: 799:             
      +                              dbuf[n++] = '0';
  2209   001010  51D2               	movf	efgtoa@n& (0+255),w,b
  2210   001012  0F60               	addlw	low _dbuf
  2211   001014  6ED9               	movwf	fsr2l,c
  2212   001016  6ADA               	clrf	fsr2h,c
  2213   001018  0E30               	movlw	48
  2214   00101A  6EDF               	movwf	indf2,c
  2215   00101C                     
  2216                           ; BSR set to: 0
  2217   00101C  4BD2               	infsnz	efgtoa@n& (0+255),f,b
  2218   00101E  2BD3               	incf	(efgtoa@n+1)& (0+255),f,b
  2219   001020                     
  2220                           ; BSR set to: 0
  2221                           ;C:\Program Files\Microchip\xc8\v2.46\pic\sources\c99\common\doprnt.c: 800:             
      +                              --w;
  2222   001020  07C1               	decf	efgtoa@w& (0+255),f,b
  2223   001022  A0D8               	btfss	status,0,c
  2224   001024  07C2               	decf	(efgtoa@w+1)& (0+255),f,b
  2225   001026                     
  2226                           ; BSR set to: 0
  2227                           ;C:\Program Files\Microchip\xc8\v2.46\pic\sources\c99\common\doprnt.c: 801:             
      +                              --t;
  2228   001026  07B4               	decf	efgtoa@t& (0+255),f,b
  2229   001028  A0D8               	btfss	status,0,c
  2230   00102A  07B5               	decf	(efgtoa@t+1)& (0+255),f,b
  2231   00102C                     l2725:
  2232                           
  2233                           ; BSR set to: 0
  2234                           ;C:\Program Files\Microchip\xc8\v2.46\pic\sources\c99\common\doprnt.c: 798:             
      +                          while (t) {
  2235   00102C  51B4               	movf	efgtoa@t& (0+255),w,b
  2236   00102E  11B5               	iorwf	(efgtoa@t+1)& (0+255),w,b
  2237   001030  A4D8               	btfss	status,2,c
  2238   001032  EF1D  F008         	goto	u3141
  2239   001036  EF1F  F008         	goto	u3140
  2240   00103A                     u3141:
  2241   00103A  EF08  F008         	goto	l2717
  2242   00103E                     u3140:
  2243   00103E                     
  2244                           ; BSR set to: 0
  2245                           ;C:\Program Files\Microchip\xc8\v2.46\pic\sources\c99\common\doprnt.c: 803:             
      +                          dbuf[n++] = (char)((int)'0' + d);
  2246   00103E  51D2               	movf	efgtoa@n& (0+255),w,b
  2247   001040  0F60               	addlw	low _dbuf
  2248   001042  6ED9               	movwf	fsr2l,c
  2249   001044  6ADA               	clrf	fsr2h,c
  2250   001046  51BB               	movf	efgtoa@d& (0+255),w,b
  2251   001048  0F30               	addlw	48
  2252   00104A  6EDF               	movwf	indf2,c
  2253   00104C                     
  2254                           ; BSR set to: 0
  2255   00104C  4BD2               	infsnz	efgtoa@n& (0+255),f,b
  2256   00104E  2BD3               	incf	(efgtoa@n+1)& (0+255),f,b
  2257   001050                     
  2258                           ; BSR set to: 0
  2259                           ;C:\Program Files\Microchip\xc8\v2.46\pic\sources\c99\common\doprnt.c: 804:             
      +                          --w;
  2260   001050  07C1               	decf	efgtoa@w& (0+255),f,b
  2261   001052  A0D8               	btfss	status,0,c
  2262   001054  07C2               	decf	(efgtoa@w+1)& (0+255),f,b
  2263   001056                     
  2264                           ; BSR set to: 0
  2265                           ;C:\Program Files\Microchip\xc8\v2.46\pic\sources\c99\common\doprnt.c: 805:         };C:
      +                          \Program Files\Microchip\xc8\v2.46\pic\sources\c99\common\doprnt.c: 806:         h -= l*
      +                          u.f;
  2266   001056  C0C9  F01A         	movff	efgtoa@h,___flsub@b
  2267   00105A  C0CA  F01B         	movff	efgtoa@h+1,___flsub@b+1
  2268   00105E  C0CB  F01C         	movff	efgtoa@h+2,___flsub@b+2
  2269   001062  C0CC  F01D         	movff	efgtoa@h+3,___flsub@b+3
  2270   001066  C0CD  F005         	movff	efgtoa@l,___flmul@a
  2271   00106A  C0CE  F006         	movff	efgtoa@l+1,___flmul@a+1
  2272   00106E  C0CF  F007         	movff	efgtoa@l+2,___flmul@a+2
  2273   001072  C0D0  F008         	movff	efgtoa@l+3,___flmul@a+3
  2274   001076  C0D8  F001         	movff	efgtoa@u,___flmul@b
  2275   00107A  C0D9  F002         	movff	efgtoa@u+1,___flmul@b+1
  2276   00107E  C0DA  F003         	movff	efgtoa@u+2,___flmul@b+2
  2277   001082  C0DB  F004         	movff	efgtoa@u+3,___flmul@b+3
  2278   001086  EC3F  F00B         	call	___flmul	;wreg free
  2279   00108A  C001  F01E         	movff	?___flmul,___flsub@a
  2280   00108E  C002  F01F         	movff	?___flmul+1,___flsub@a+1
  2281   001092  C003  F020         	movff	?___flmul+2,___flsub@a+2
  2282   001096  C004  F021         	movff	?___flmul+3,___flsub@a+3
  2283   00109A  EC15  F014         	call	___flsub	;wreg free
  2284   00109E  C01A  F0C9         	movff	?___flsub,efgtoa@h
  2285   0010A2  C01B  F0CA         	movff	?___flsub+1,efgtoa@h+1
  2286   0010A6  C01C  F0CB         	movff	?___flsub+2,efgtoa@h+2
  2287   0010AA  C01D  F0CC         	movff	?___flsub+3,efgtoa@h+3
  2288   0010AE                     
  2289                           ;C:\Program Files\Microchip\xc8\v2.46\pic\sources\c99\common\doprnt.c: 807:         u.f 
      +                          = u.f/10.0;
  2290   0010AE  C0D8  F001         	movff	efgtoa@u,___fldiv@b
  2291   0010B2  C0D9  F002         	movff	efgtoa@u+1,___fldiv@b+1
  2292   0010B6  C0DA  F003         	movff	efgtoa@u+2,___fldiv@b+2
  2293   0010BA  C0DB  F004         	movff	efgtoa@u+3,___fldiv@b+3
  2294   0010BE  0E00               	movlw	0
  2295   0010C0  6E05               	movwf	___fldiv@a^0,c
  2296   0010C2  0E00               	movlw	0
  2297   0010C4  6E06               	movwf	(___fldiv@a+1)^0,c
  2298   0010C6  0E20               	movlw	32
  2299   0010C8  6E07               	movwf	(___fldiv@a+2)^0,c
  2300   0010CA  0E41               	movlw	65
  2301   0010CC  6E08               	movwf	(___fldiv@a+3)^0,c
  2302   0010CE  EC54  F00D         	call	___fldiv	;wreg free
  2303   0010D2  C001  F0D8         	movff	?___fldiv,efgtoa@u
  2304   0010D6  C002  F0D9         	movff	?___fldiv+1,efgtoa@u+1
  2305   0010DA  C003  F0DA         	movff	?___fldiv+2,efgtoa@u+2
  2306   0010DE  C004  F0DB         	movff	?___fldiv+3,efgtoa@u+3
  2307   0010E2                     
  2308                           ;C:\Program Files\Microchip\xc8\v2.46\pic\sources\c99\common\doprnt.c: 808:         --ne
      +                          ;
  2309   0010E2  0100               	movlb	0	; () banked
  2310   0010E4  07B0               	decf	efgtoa@ne& (0+255),f,b
  2311   0010E6  A0D8               	btfss	status,0,c
  2312   0010E8  07B1               	decf	(efgtoa@ne+1)& (0+255),f,b
  2313   0010EA                     
  2314                           ; BSR set to: 0
  2315                           ;C:\Program Files\Microchip\xc8\v2.46\pic\sources\c99\common\doprnt.c: 809:         ++i;
  2316   0010EA  4BC7               	infsnz	efgtoa@i& (0+255),f,b
  2317   0010EC  2BC8               	incf	(efgtoa@i+1)& (0+255),f,b
  2318   0010EE                     l2741:
  2319                           
  2320                           ; BSR set to: 0
  2321                           ;C:\Program Files\Microchip\xc8\v2.46\pic\sources\c99\common\doprnt.c: 779:     while ((
      +                          i < m) && (n < (80 - 5))) {
  2322   0010EE  51BD               	movf	efgtoa@m& (0+255),w,b
  2323   0010F0  5DC7               	subwf	efgtoa@i& (0+255),w,b
  2324   0010F2  51C8               	movf	(efgtoa@i+1)& (0+255),w,b
  2325   0010F4  0A80               	xorlw	128
  2326   0010F6  6E35               	movwf	??_efgtoa^0,c
  2327   0010F8  51BE               	movf	(efgtoa@m+1)& (0+255),w,b
  2328   0010FA  0A80               	xorlw	128
  2329   0010FC  5835               	subwfb	??_efgtoa^0,w,c
  2330   0010FE  B0D8               	btfsc	status,0,c
  2331   001100  EF84  F008         	goto	u3151
  2332   001104  EF86  F008         	goto	u3150
  2333   001108                     u3151:
  2334   001108  EF94  F008         	goto	l2745
  2335   00110C                     u3150:
  2336   00110C                     
  2337                           ; BSR set to: 0
  2338   00110C  BFD3               	btfsc	(efgtoa@n+1)& (0+255),7,b
  2339   00110E  EF92  F008         	goto	u3161
  2340   001112  51D3               	movf	(efgtoa@n+1)& (0+255),w,b
  2341   001114  E109               	bnz	u3160
  2342   001116  0E4B               	movlw	75
  2343   001118  5DD2               	subwf	efgtoa@n& (0+255),w,b
  2344   00111A  A0D8               	btfss	status,0,c
  2345   00111C  EF92  F008         	goto	u3161
  2346   001120  EF94  F008         	goto	u3160
  2347   001124                     u3161:
  2348   001124  EF98  F007         	goto	l2701
  2349   001128                     u3160:
  2350   001128                     l2745:
  2351                           
  2352                           ; BSR set to: 0
  2353                           ;C:\Program Files\Microchip\xc8\v2.46\pic\sources\c99\common\doprnt.c: 816:  i = sizeof(
      +                          dbuf) - 1;
  2354   001128  0E00               	movlw	0
  2355   00112A  6FC8               	movwf	(efgtoa@i+1)& (0+255),b
  2356   00112C  0E4F               	movlw	79
  2357   00112E  6FC7               	movwf	efgtoa@i& (0+255),b
  2358   001130                     
  2359                           ; BSR set to: 0
  2360                           ;C:\Program Files\Microchip\xc8\v2.46\pic\sources\c99\common\doprnt.c: 817:     dbuf[i] 
      +                          = '\0';
  2361   001130  51C7               	movf	efgtoa@i& (0+255),w,b
  2362   001132  0F60               	addlw	low _dbuf
  2363   001134  6ED9               	movwf	fsr2l,c
  2364   001136  6ADA               	clrf	fsr2h,c
  2365   001138  6ADF               	clrf	indf2,c
  2366   00113A                     
  2367                           ; BSR set to: 0
  2368                           ;C:\Program Files\Microchip\xc8\v2.46\pic\sources\c99\common\doprnt.c: 848:  memcpy(&dbu
      +                          f[i-n], &dbuf[0], (size_t)n);
  2369   00113A  51D2               	movf	efgtoa@n& (0+255),w,b
  2370   00113C  0860               	sublw	low _dbuf
  2371   00113E  25C7               	addwf	efgtoa@i& (0+255),w,b
  2372   001140  6E01               	movwf	memcpy@d1^0,c
  2373   001142  0E60               	movlw	low _dbuf
  2374   001144  6E02               	movwf	memcpy@s1^0,c
  2375   001146  C0D2  F003         	movff	efgtoa@n,memcpy@n
  2376   00114A  C0D3  F004         	movff	efgtoa@n+1,memcpy@n+1
  2377   00114E  EC79  F014         	call	_memcpy	;wreg free
  2378   001152                     
  2379                           ;C:\Program Files\Microchip\xc8\v2.46\pic\sources\c99\common\doprnt.c: 849:  n = i-n;
  2380   001152  0100               	movlb	0	; () banked
  2381   001154  51D2               	movf	efgtoa@n& (0+255),w,b
  2382   001156  5DC7               	subwf	efgtoa@i& (0+255),w,b
  2383   001158  6FD2               	movwf	efgtoa@n& (0+255),b
  2384   00115A  51D3               	movf	(efgtoa@n+1)& (0+255),w,b
  2385   00115C  59C8               	subwfb	(efgtoa@i+1)& (0+255),w,b
  2386   00115E  6FD3               	movwf	(efgtoa@n+1)& (0+255),b
  2387   001160                     
  2388                           ; BSR set to: 0
  2389                           ;C:\Program Files\Microchip\xc8\v2.46\pic\sources\c99\common\doprnt.c: 850:  i = sign ==
      +                           0 ? 0 : 1;
  2390   001160  51D1               	movf	efgtoa@sign& (0+255),w,b
  2391   001162  A4D8               	btfss	status,2,c
  2392   001164  EFB6  F008         	goto	u3171
  2393   001168  EFB9  F008         	goto	u3170
  2394   00116C                     u3171:
  2395   00116C  0E01               	movlw	1
  2396   00116E  EFBA  F008         	goto	u3180
  2397   001172                     u3170:
  2398   001172  0E00               	movlw	0
  2399   001174                     u3180:
  2400   001174  6FC7               	movwf	efgtoa@i& (0+255),b
  2401   001176  6BC8               	clrf	(efgtoa@i+1)& (0+255),b
  2402   001178                     
  2403                           ; BSR set to: 0
  2404                           ;C:\Program Files\Microchip\xc8\v2.46\pic\sources\c99\common\doprnt.c: 861:  if (sign) {
  2405   001178  51D1               	movf	efgtoa@sign& (0+255),w,b
  2406   00117A  B4D8               	btfsc	status,2,c
  2407   00117C  EFC2  F008         	goto	u3191
  2408   001180  EFC4  F008         	goto	u3190
  2409   001184                     u3191:
  2410   001184  EFCD  F008         	goto	l2759
  2411   001188                     u3190:
  2412   001188                     
  2413                           ; BSR set to: 0
  2414                           ;C:\Program Files\Microchip\xc8\v2.46\pic\sources\c99\common\doprnt.c: 862:   dbuf[--n] 
      +                          = sign;
  2415   001188  07D2               	decf	efgtoa@n& (0+255),f,b
  2416   00118A  A0D8               	btfss	status,0,c
  2417   00118C  07D3               	decf	(efgtoa@n+1)& (0+255),f,b
  2418   00118E  51D2               	movf	efgtoa@n& (0+255),w,b
  2419   001190  0F60               	addlw	low _dbuf
  2420   001192  6ED9               	movwf	fsr2l,c
  2421   001194  6ADA               	clrf	fsr2h,c
  2422   001196  C0D1  FFDF         	movff	efgtoa@sign,indf2
  2423   00119A                     l2759:
  2424                           
  2425                           ; BSR set to: 0
  2426                           ;C:\Program Files\Microchip\xc8\v2.46\pic\sources\c99\common\doprnt.c: 864:  w -= i;
  2427   00119A  51C7               	movf	efgtoa@i& (0+255),w,b
  2428   00119C  5FC1               	subwf	efgtoa@w& (0+255),f,b
  2429   00119E  51C8               	movf	(efgtoa@i+1)& (0+255),w,b
  2430   0011A0  5BC2               	subwfb	(efgtoa@w+1)& (0+255),f,b
  2431   0011A2                     
  2432                           ; BSR set to: 0
  2433                           ;C:\Program Files\Microchip\xc8\v2.46\pic\sources\c99\common\doprnt.c: 867:     return (
      +                          void) pad(fp, &dbuf[n], w);
  2434   0011A2  C02E  F010         	movff	efgtoa@fp,pad@fp
  2435   0011A6  C02F  F011         	movff	efgtoa@fp+1,pad@fp+1
  2436   0011AA  51D2               	movf	efgtoa@n& (0+255),w,b
  2437   0011AC  0F60               	addlw	low _dbuf
  2438   0011AE  6E12               	movwf	pad@buf^0,c
  2439   0011B0  C0C1  F013         	movff	efgtoa@w,pad@p
  2440   0011B4  C0C2  F014         	movff	efgtoa@w+1,pad@p+1
  2441   0011B8  ECB5  F013         	call	_pad	;wreg free
  2442   0011BC                     l742:
  2443   0011BC  0012               	return		;funcret
  2444   0011BE                     __end_of_efgtoa:
  2445                           	callstack 0
  2446                           
  2447 ;; *************** function _strcpy *****************
  2448 ;; Defined at:
  2449 ;;		line 3 in file "C:\Program Files\Microchip\xc8\v2.46\pic\sources\c99\common\strcpy.c"
  2450 ;; Parameters:    Size  Location     Type
  2451 ;;  dest            1    0[COMRAM] PTR unsigned char 
  2452 ;;		 -> dbuf(80), 
  2453 ;;  src             1    1[COMRAM] PTR const unsigned char 
  2454 ;;		 -> STR_5(4), STR_2(4), 
  2455 ;; Auto vars:     Size  Location     Type
  2456 ;;  d               1    3[COMRAM] PTR unsigned char 
  2457 ;;		 -> dbuf(80), 
  2458 ;; Return value:  Size  Location     Type
  2459 ;;                  1    wreg      PTR unsigned char 
  2460 ;; Registers used:
  2461 ;;		wreg, fsr2l, fsr2h, status,2, status,0, tblptrl, tblptrh, tblptru
  2462 ;; Tracked objects:
  2463 ;;		On entry : 0/0
  2464 ;;		On exit  : 0/0
  2465 ;;		Unchanged: 0/0
  2466 ;; Data sizes:     COMRAM   BANK0   BANK1   BANK2   BANK3   BANK4   BANK5   BANK6   BANK7
  2467 ;;      Params:         2       0       0       0       0       0       0       0       0
  2468 ;;      Locals:         1       0       0       0       0       0       0       0       0
  2469 ;;      Temps:          1       0       0       0       0       0       0       0       0
  2470 ;;      Totals:         4       0       0       0       0       0       0       0       0
  2471 ;;Total ram usage:        4 bytes
  2472 ;; Hardware stack levels used: 1
  2473 ;; This function calls:
  2474 ;;		Nothing
  2475 ;; This function is called by:
  2476 ;;		_efgtoa
  2477 ;; This function uses a non-reentrant model
  2478 ;;
  2479                           
  2480                           	psect	text5
  2481   00296A                     __ptext5:
  2482                           	callstack 0
  2483   00296A                     _strcpy:
  2484                           	callstack 26
  2485   00296A  C001  F004         	movff	strcpy@dest,strcpy@d
  2486   00296E                     l2495:
  2487   00296E  2A02               	incf	strcpy@src^0,f,c
  2488   002970  0402               	decf	strcpy@src^0,w,c
  2489   002972  6E03               	movwf	??_strcpy^0,c
  2490   002974  C003  FFF6         	movff	??_strcpy,tblptrl
  2491   002978                     	if	1	;There is more than 1 active tblptr byte
  2492   002978  0E08               	movlw	high __smallconst
  2493   00297A  6EF7               	movwf	tblptrh,c
  2494   00297C                     	endif
  2495   00297C                     	if	0	;tblptru may be non-zero
  2496   00297C                     	endif
  2497   00297C                     	if	0	;tblptru may be non-zero
  2498   00297C                     	endif
  2499   00297C  2A04               	incf	strcpy@d^0,f,c
  2500   00297E  0404               	decf	strcpy@d^0,w,c
  2501   002980  6ED9               	movwf	fsr2l,c
  2502   002982  6ADA               	clrf	fsr2h,c
  2503   002984  0008               	tblrd		*
  2504   002986  CFF5 FFDF          	movff	tablat,indf2
  2505   00298A  50DF               	movf	indf2,w,c
  2506   00298C  A4D8               	btfss	status,2,c
  2507   00298E  EFCB  F014         	goto	u2751
  2508   002992  EFCD  F014         	goto	u2750
  2509   002996                     u2751:
  2510   002996  EFB7  F014         	goto	l2495
  2511   00299A                     u2750:
  2512   00299A  0012               	return		;funcret
  2513   00299C                     __end_of_strcpy:
  2514                           	callstack 0
  2515                           
  2516 ;; *************** function _pad *****************
  2517 ;; Defined at:
  2518 ;;		line 193 in file "C:\Program Files\Microchip\xc8\v2.46\pic\sources\c99\common\doprnt.c"
  2519 ;; Parameters:    Size  Location     Type
  2520 ;;  fp              2   15[COMRAM] PTR struct _IO_FILE
  2521 ;;		 -> NULL(0), 
  2522 ;;  buf             1   17[COMRAM] PTR unsigned char 
  2523 ;;		 -> dbuf(80), 
  2524 ;;  p               2   18[COMRAM] int 
  2525 ;; Auto vars:     Size  Location     Type
  2526 ;;  i               2   21[COMRAM] int 
  2527 ;; Return value:  Size  Location     Type
  2528 ;;                  1    wreg      void 
  2529 ;; Registers used:
  2530 ;;		wreg, fsr1l, fsr1h, fsr2l, fsr2h, status,2, status,0, cstack
  2531 ;; Tracked objects:
  2532 ;;		On entry : 0/0
  2533 ;;		On exit  : 0/0
  2534 ;;		Unchanged: 0/0
  2535 ;; Data sizes:     COMRAM   BANK0   BANK1   BANK2   BANK3   BANK4   BANK5   BANK6   BANK7
  2536 ;;      Params:         5       0       0       0       0       0       0       0       0
  2537 ;;      Locals:         2       0       0       0       0       0       0       0       0
  2538 ;;      Temps:          1       0       0       0       0       0       0       0       0
  2539 ;;      Totals:         8       0       0       0       0       0       0       0       0
  2540 ;;Total ram usage:        8 bytes
  2541 ;; Hardware stack levels used: 1
  2542 ;; Hardware stack levels required when called: 3
  2543 ;; This function calls:
  2544 ;;		_fputc
  2545 ;;		_fputs
  2546 ;; This function is called by:
  2547 ;;		_efgtoa
  2548 ;; This function uses a non-reentrant model
  2549 ;;
  2550                           
  2551                           	psect	text6
  2552   00276A                     __ptext6:
  2553                           	callstack 0
  2554   00276A                     _pad:
  2555                           	callstack 23
  2556   00276A                     
  2557                           ;C:\Program Files\Microchip\xc8\v2.46\pic\sources\c99\common\doprnt.c: 193: static void 
      +                          pad(FILE *fp, char *buf, int p);C:\Program Files\Microchip\xc8\v2.46\pic\sources\c99\com
      +                          mon\doprnt.c: 194: {;C:\Program Files\Microchip\xc8\v2.46\pic\sources\c99\common\doprnt.
      +                          c: 195:     int i;;C:\Program Files\Microchip\xc8\v2.46\pic\sources\c99\common\doprnt.c:
      +                           205:  if (p < 0) {
  2558   00276A  BE14               	btfsc	(pad@p+1)^0,7,c
  2559   00276C  EFBC  F013         	goto	u2660
  2560   002770  EFBA  F013         	goto	u2661
  2561   002774                     u2661:
  2562   002774  EFC0  F013         	goto	l727
  2563   002778                     u2660:
  2564   002778                     
  2565                           ;C:\Program Files\Microchip\xc8\v2.46\pic\sources\c99\common\doprnt.c: 206:   p = 0;
  2566   002778  0E00               	movlw	0
  2567   00277A  6E14               	movwf	(pad@p+1)^0,c
  2568   00277C  0E00               	movlw	0
  2569   00277E  6E13               	movwf	pad@p^0,c
  2570   002780                     l727:
  2571                           
  2572                           ;C:\Program Files\Microchip\xc8\v2.46\pic\sources\c99\common\doprnt.c: 208:     i = 0;
  2573   002780  0E00               	movlw	0
  2574   002782  6E17               	movwf	(pad@i+1)^0,c
  2575   002784  0E00               	movlw	0
  2576   002786  6E16               	movwf	pad@i^0,c
  2577                           
  2578                           ;C:\Program Files\Microchip\xc8\v2.46\pic\sources\c99\common\doprnt.c: 209:     while (i
      +                           < p) {
  2579   002788  EFD2  F013         	goto	l2467
  2580   00278C                     l2463:
  2581                           
  2582                           ;C:\Program Files\Microchip\xc8\v2.46\pic\sources\c99\common\doprnt.c: 210:         fput
      +                          c(' ', fp);
  2583   00278C  0E00               	movlw	0
  2584   00278E  6E02               	movwf	(fputc@c+1)^0,c
  2585   002790  0E20               	movlw	32
  2586   002792  6E01               	movwf	fputc@c^0,c
  2587   002794  C010  F003         	movff	pad@fp,fputc@fp
  2588   002798  C011  F004         	movff	pad@fp+1,fputc@fp+1
  2589   00279C  EC7A  F012         	call	_fputc	;wreg free
  2590   0027A0                     
  2591                           ;C:\Program Files\Microchip\xc8\v2.46\pic\sources\c99\common\doprnt.c: 211:         ++i;
  2592   0027A0  4A16               	infsnz	pad@i^0,f,c
  2593   0027A2  2A17               	incf	(pad@i+1)^0,f,c
  2594   0027A4                     l2467:
  2595                           
  2596                           ;C:\Program Files\Microchip\xc8\v2.46\pic\sources\c99\common\doprnt.c: 209:     while (i
      +                           < p) {
  2597   0027A4  5013               	movf	pad@p^0,w,c
  2598   0027A6  5C16               	subwf	pad@i^0,w,c
  2599   0027A8  5017               	movf	(pad@i+1)^0,w,c
  2600   0027AA  0A80               	xorlw	128
  2601   0027AC  6E15               	movwf	??_pad^0,c
  2602   0027AE  5014               	movf	(pad@p+1)^0,w,c
  2603   0027B0  0A80               	xorlw	128
  2604   0027B2  5815               	subwfb	??_pad^0,w,c
  2605   0027B4  A0D8               	btfss	status,0,c
  2606   0027B6  EFDF  F013         	goto	u2671
  2607   0027BA  EFE1  F013         	goto	u2670
  2608   0027BE                     u2671:
  2609   0027BE  EFC6  F013         	goto	l2463
  2610   0027C2                     u2670:
  2611   0027C2                     
  2612                           ;C:\Program Files\Microchip\xc8\v2.46\pic\sources\c99\common\doprnt.c: 218:         fput
      +                          s((const char *)buf, fp);
  2613   0027C2  C012  F00A         	movff	pad@buf,fputs@s
  2614   0027C6  C010  F00B         	movff	pad@fp,fputs@fp
  2615   0027CA  C011  F00C         	movff	pad@fp+1,fputs@fp+1
  2616   0027CE  EC59  F014         	call	_fputs	;wreg free
  2617   0027D2  0012               	return		;funcret
  2618   0027D4                     __end_of_pad:
  2619                           	callstack 0
  2620                           
  2621 ;; *************** function _fputs *****************
  2622 ;; Defined at:
  2623 ;;		line 8 in file "C:\Program Files\Microchip\xc8\v2.46\pic\sources\c99\common\nf_fputs.c"
  2624 ;; Parameters:    Size  Location     Type
  2625 ;;  s               1    9[COMRAM] PTR const unsigned char 
  2626 ;;		 -> dbuf(80), 
  2627 ;;  fp              2   10[COMRAM] PTR struct _IO_FILE
  2628 ;;		 -> NULL(0), 
  2629 ;; Auto vars:     Size  Location     Type
  2630 ;;  i               2   13[COMRAM] int 
  2631 ;;  c               1   12[COMRAM] unsigned char 
  2632 ;; Return value:  Size  Location     Type
  2633 ;;                  2    9[COMRAM] int 
  2634 ;; Registers used:
  2635 ;;		wreg, fsr1l, fsr1h, fsr2l, fsr2h, status,2, status,0, cstack
  2636 ;; Tracked objects:
  2637 ;;		On entry : 0/0
  2638 ;;		On exit  : 0/0
  2639 ;;		Unchanged: 0/0
  2640 ;; Data sizes:     COMRAM   BANK0   BANK1   BANK2   BANK3   BANK4   BANK5   BANK6   BANK7
  2641 ;;      Params:         3       0       0       0       0       0       0       0       0
  2642 ;;      Locals:         3       0       0       0       0       0       0       0       0
  2643 ;;      Temps:          0       0       0       0       0       0       0       0       0
  2644 ;;      Totals:         6       0       0       0       0       0       0       0       0
  2645 ;;Total ram usage:        6 bytes
  2646 ;; Hardware stack levels used: 1
  2647 ;; Hardware stack levels required when called: 2
  2648 ;; This function calls:
  2649 ;;		_fputc
  2650 ;; This function is called by:
  2651 ;;		_pad
  2652 ;; This function uses a non-reentrant model
  2653 ;;
  2654                           
  2655                           	psect	text7
  2656   0028B2                     __ptext7:
  2657                           	callstack 0
  2658   0028B2                     _fputs:
  2659                           	callstack 23
  2660   0028B2  0E00               	movlw	0
  2661   0028B4  6E0F               	movwf	(fputs@i+1)^0,c
  2662   0028B6  0E00               	movlw	0
  2663   0028B8  6E0E               	movwf	fputs@i^0,c
  2664   0028BA  EF6A  F014         	goto	l2093
  2665   0028BE                     l2089:
  2666   0028BE  C00D  F001         	movff	fputs@c,fputc@c
  2667   0028C2  6A02               	clrf	(fputc@c+1)^0,c
  2668   0028C4  C00B  F003         	movff	fputs@fp,fputc@fp
  2669   0028C8  C00C  F004         	movff	fputs@fp+1,fputc@fp+1
  2670   0028CC  EC7A  F012         	call	_fputc	;wreg free
  2671   0028D0  4A0E               	infsnz	fputs@i^0,f,c
  2672   0028D2  2A0F               	incf	(fputs@i+1)^0,f,c
  2673   0028D4                     l2093:
  2674   0028D4  500A               	movf	fputs@s^0,w,c
  2675   0028D6  240E               	addwf	fputs@i^0,w,c
  2676   0028D8  6ED9               	movwf	fsr2l,c
  2677   0028DA  6ADA               	clrf	fsr2h,c
  2678   0028DC  50DF               	movf	indf2,w,c
  2679   0028DE  6E0D               	movwf	fputs@c^0,c
  2680   0028E0  500D               	movf	fputs@c^0,w,c
  2681   0028E2  A4D8               	btfss	status,2,c
  2682   0028E4  EF76  F014         	goto	u2071
  2683   0028E8  EF78  F014         	goto	u2070
  2684   0028EC                     u2071:
  2685   0028EC  EF5F  F014         	goto	l2089
  2686   0028F0                     u2070:
  2687   0028F0  0012               	return		;funcret
  2688   0028F2                     __end_of_fputs:
  2689                           	callstack 0
  2690                           
  2691 ;; *************** function _fputc *****************
  2692 ;; Defined at:
  2693 ;;		line 8 in file "C:\Program Files\Microchip\xc8\v2.46\pic\sources\c99\common\nf_fputc.c"
  2694 ;; Parameters:    Size  Location     Type
  2695 ;;  c               2    0[COMRAM] int 
  2696 ;;  fp              2    2[COMRAM] PTR struct _IO_FILE
  2697 ;;		 -> NULL(0), 
  2698 ;; Auto vars:     Size  Location     Type
  2699 ;;		None
  2700 ;; Return value:  Size  Location     Type
  2701 ;;                  2    0[COMRAM] int 
  2702 ;; Registers used:
  2703 ;;		wreg, fsr1l, fsr1h, fsr2l, fsr2h, status,2, status,0, cstack
  2704 ;; Tracked objects:
  2705 ;;		On entry : 0/0
  2706 ;;		On exit  : 0/0
  2707 ;;		Unchanged: 0/0
  2708 ;; Data sizes:     COMRAM   BANK0   BANK1   BANK2   BANK3   BANK4   BANK5   BANK6   BANK7
  2709 ;;      Params:         4       0       0       0       0       0       0       0       0
  2710 ;;      Locals:         0       0       0       0       0       0       0       0       0
  2711 ;;      Temps:          5       0       0       0       0       0       0       0       0
  2712 ;;      Totals:         9       0       0       0       0       0       0       0       0
  2713 ;;Total ram usage:        9 bytes
  2714 ;; Hardware stack levels used: 1
  2715 ;; Hardware stack levels required when called: 1
  2716 ;; This function calls:
  2717 ;;		_putch
  2718 ;; This function is called by:
  2719 ;;		_pad
  2720 ;;		_vfpfcnvrt
  2721 ;;		_fputs
  2722 ;; This function uses a non-reentrant model
  2723 ;;
  2724                           
  2725                           	psect	text8
  2726   0024F4                     __ptext8:
  2727                           	callstack 0
  2728   0024F4                     _fputc:
  2729                           	callstack 26
  2730   0024F4  5003               	movf	fputc@fp^0,w,c
  2731   0024F6  1004               	iorwf	(fputc@fp+1)^0,w,c
  2732   0024F8  B4D8               	btfsc	status,2,c
  2733   0024FA  EF81  F012         	goto	u1641
  2734   0024FE  EF83  F012         	goto	u1640
  2735   002502                     u1641:
  2736   002502  EF8C  F012         	goto	l1875
  2737   002506                     u1640:
  2738   002506  5003               	movf	fputc@fp^0,w,c
  2739   002508  1004               	iorwf	(fputc@fp+1)^0,w,c
  2740   00250A  A4D8               	btfss	status,2,c
  2741   00250C  EF8A  F012         	goto	u1651
  2742   002510  EF8C  F012         	goto	u1650
  2743   002514                     u1651:
  2744   002514  EF91  F012         	goto	l1877
  2745   002518                     u1650:
  2746   002518                     l1875:
  2747   002518  5001               	movf	fputc@c^0,w,c
  2748   00251A  ECEC  F014         	call	_putch
  2749   00251E  EFDE  F012         	goto	l858
  2750   002522                     l1877:
  2751   002522  EE20 F00A          	lfsr	2,10
  2752   002526  5003               	movf	fputc@fp^0,w,c
  2753   002528  26D9               	addwf	fsr2l,f,c
  2754   00252A  5004               	movf	(fputc@fp+1)^0,w,c
  2755   00252C  22DA               	addwfc	fsr2h,f,c
  2756   00252E  50DE               	movf	postinc2,w,c
  2757   002530  10DE               	iorwf	postinc2,w,c
  2758   002532  B4D8               	btfsc	status,2,c
  2759   002534  EF9E  F012         	goto	u1661
  2760   002538  EFA0  F012         	goto	u1660
  2761   00253C                     u1661:
  2762   00253C  EFBB  F012         	goto	l1881
  2763   002540                     u1660:
  2764   002540  EE20 F00A          	lfsr	2,10
  2765   002544  5003               	movf	fputc@fp^0,w,c
  2766   002546  26D9               	addwf	fsr2l,f,c
  2767   002548  5004               	movf	(fputc@fp+1)^0,w,c
  2768   00254A  22DA               	addwfc	fsr2h,f,c
  2769   00254C  EE10 F003          	lfsr	1,3
  2770   002550  5003               	movf	fputc@fp^0,w,c
  2771   002552  26E1               	addwf	fsr1l,f,c
  2772   002554  5004               	movf	(fputc@fp+1)^0,w,c
  2773   002556  22E2               	addwfc	fsr1h,f,c
  2774   002558  50DE               	movf	postinc2,w,c
  2775   00255A  5CE6               	subwf	postinc1,w,c
  2776   00255C  50E6               	movf	postinc1,w,c
  2777   00255E  0A80               	xorlw	128
  2778   002560  6E09               	movwf	(??_fputc+4)^0,c
  2779   002562  50DE               	movf	postinc2,w,c
  2780   002564  0A80               	xorlw	128
  2781   002566  5809               	subwfb	(??_fputc+4)^0,w,c
  2782   002568  B0D8               	btfsc	status,0,c
  2783   00256A  EFB9  F012         	goto	u1671
  2784   00256E  EFBB  F012         	goto	u1670
  2785   002572                     u1671:
  2786   002572  EFDE  F012         	goto	l858
  2787   002576                     u1670:
  2788   002576                     l1881:
  2789   002576  EE20 F003          	lfsr	2,3
  2790   00257A  5003               	movf	fputc@fp^0,w,c
  2791   00257C  26D9               	addwf	fsr2l,f,c
  2792   00257E  5004               	movf	(fputc@fp+1)^0,w,c
  2793   002580  22DA               	addwfc	fsr2h,f,c
  2794   002582  CFDE F005          	movff	postinc2,??_fputc
  2795   002586  CFDD F006          	movff	postdec2,??_fputc+1
  2796   00258A  C003  FFD9         	movff	fputc@fp,fsr2l
  2797   00258E  C004  FFDA         	movff	fputc@fp+1,fsr2h
  2798   002592  CFDE F007          	movff	postinc2,??_fputc+2
  2799   002596  CFDD F008          	movff	postdec2,??_fputc+3
  2800   00259A  5005               	movf	??_fputc^0,w,c
  2801   00259C  2407               	addwf	(??_fputc+2)^0,w,c
  2802   00259E  6ED9               	movwf	fsr2l,c
  2803   0025A0  5006               	movf	(??_fputc+1)^0,w,c
  2804   0025A2  2008               	addwfc	(??_fputc+3)^0,w,c
  2805   0025A4  6EDA               	movwf	fsr2h,c
  2806   0025A6  C001  FFDF         	movff	fputc@c,indf2
  2807   0025AA  EE20 F003          	lfsr	2,3
  2808   0025AE  5003               	movf	fputc@fp^0,w,c
  2809   0025B0  26D9               	addwf	fsr2l,f,c
  2810   0025B2  5004               	movf	(fputc@fp+1)^0,w,c
  2811   0025B4  22DA               	addwfc	fsr2h,f,c
  2812   0025B6  2ADE               	incf	postinc2,f,c
  2813   0025B8  0E00               	movlw	0
  2814   0025BA  22DD               	addwfc	postdec2,f,c
  2815   0025BC                     l858:
  2816   0025BC  0012               	return		;funcret
  2817   0025BE                     __end_of_fputc:
  2818                           	callstack 0
  2819                           
  2820 ;; *************** function _putch *****************
  2821 ;; Defined at:
  2822 ;;		line 7 in file "C:\Program Files\Microchip\xc8\v2.46\pic\sources\c99\common\putch.c"
  2823 ;; Parameters:    Size  Location     Type
  2824 ;;  c               1    wreg     unsigned char 
  2825 ;; Auto vars:     Size  Location     Type
  2826 ;;  c               1    0[COMRAM] unsigned char 
  2827 ;; Return value:  Size  Location     Type
  2828 ;;                  1    wreg      void 
  2829 ;; Registers used:
  2830 ;;		wreg
  2831 ;; Tracked objects:
  2832 ;;		On entry : 0/0
  2833 ;;		On exit  : 0/0
  2834 ;;		Unchanged: 0/0
  2835 ;; Data sizes:     COMRAM   BANK0   BANK1   BANK2   BANK3   BANK4   BANK5   BANK6   BANK7
  2836 ;;      Params:         0       0       0       0       0       0       0       0       0
  2837 ;;      Locals:         0       0       0       0       0       0       0       0       0
  2838 ;;      Temps:          0       0       0       0       0       0       0       0       0
  2839 ;;      Totals:         0       0       0       0       0       0       0       0       0
  2840 ;;Total ram usage:        0 bytes
  2841 ;; Hardware stack levels used: 1
  2842 ;; This function calls:
  2843 ;;		Nothing
  2844 ;; This function is called by:
  2845 ;;		_fputc
  2846 ;; This function uses a non-reentrant model
  2847 ;;
  2848                           
  2849                           	psect	text9
  2850   0029D8                     __ptext9:
  2851                           	callstack 0
  2852   0029D8                     _putch:
  2853                           	callstack 26
  2854   0029D8  0012               	return		;funcret
  2855   0029DA                     __end_of_putch:
  2856                           	callstack 0
  2857                           
  2858 ;; *************** function _memcpy *****************
  2859 ;; Defined at:
  2860 ;;		line 4 in file "C:\Program Files\Microchip\xc8\v2.46\pic\sources\c99\common\memcpy.c"
  2861 ;; Parameters:    Size  Location     Type
  2862 ;;  d1              1    0[COMRAM] PTR void 
  2863 ;;		 -> dbuf(80), 
  2864 ;;  s1              1    1[COMRAM] PTR const void 
  2865 ;;		 -> dbuf(80), 
  2866 ;;  n               2    2[COMRAM] unsigned int 
  2867 ;; Auto vars:     Size  Location     Type
  2868 ;;  s               1    6[COMRAM] PTR const unsigned char 
  2869 ;;		 -> dbuf(80), 
  2870 ;;  d               1    5[COMRAM] PTR unsigned char 
  2871 ;;		 -> dbuf(80), 
  2872 ;;  tmp             1    4[COMRAM] unsigned char 
  2873 ;; Return value:  Size  Location     Type
  2874 ;;                  1    wreg      PTR void 
  2875 ;; Registers used:
  2876 ;;		wreg, fsr2l, fsr2h, status,2, status,0
  2877 ;; Tracked objects:
  2878 ;;		On entry : 0/0
  2879 ;;		On exit  : 0/0
  2880 ;;		Unchanged: 0/0
  2881 ;; Data sizes:     COMRAM   BANK0   BANK1   BANK2   BANK3   BANK4   BANK5   BANK6   BANK7
  2882 ;;      Params:         4       0       0       0       0       0       0       0       0
  2883 ;;      Locals:         3       0       0       0       0       0       0       0       0
  2884 ;;      Temps:          0       0       0       0       0       0       0       0       0
  2885 ;;      Totals:         7       0       0       0       0       0       0       0       0
  2886 ;;Total ram usage:        7 bytes
  2887 ;; Hardware stack levels used: 1
  2888 ;; This function calls:
  2889 ;;		Nothing
  2890 ;; This function is called by:
  2891 ;;		_efgtoa
  2892 ;; This function uses a non-reentrant model
  2893 ;;
  2894                           
  2895                           	psect	text10
  2896   0028F2                     __ptext10:
  2897                           	callstack 0
  2898   0028F2                     _memcpy:
  2899                           	callstack 26
  2900   0028F2  C002  F007         	movff	memcpy@s1,memcpy@s
  2901   0028F6  C001  F006         	movff	memcpy@d1,memcpy@d
  2902   0028FA  EF8B  F014         	goto	l2541
  2903   0028FE                     l2535:
  2904   0028FE  5007               	movf	memcpy@s^0,w,c
  2905   002900  6ED9               	movwf	fsr2l,c
  2906   002902  6ADA               	clrf	fsr2h,c
  2907   002904  50DF               	movf	indf2,w,c
  2908   002906  6E05               	movwf	memcpy@tmp^0,c
  2909   002908  2A07               	incf	memcpy@s^0,f,c
  2910   00290A  5006               	movf	memcpy@d^0,w,c
  2911   00290C  6ED9               	movwf	fsr2l,c
  2912   00290E  6ADA               	clrf	fsr2h,c
  2913   002910  C005  FFDF         	movff	memcpy@tmp,indf2
  2914   002914  2A06               	incf	memcpy@d^0,f,c
  2915   002916                     l2541:
  2916   002916  0603               	decf	memcpy@n^0,f,c
  2917   002918  A0D8               	btfss	status,0,c
  2918   00291A  0604               	decf	(memcpy@n+1)^0,f,c
  2919   00291C  2803               	incf	memcpy@n^0,w,c
  2920   00291E  E106               	bnz	u2871
  2921   002920  2804               	incf	(memcpy@n+1)^0,w,c
  2922   002922  A4D8               	btfss	status,2,c
  2923   002924  EF96  F014         	goto	u2871
  2924   002928  EF98  F014         	goto	u2870
  2925   00292C                     u2871:
  2926   00292C  EF7F  F014         	goto	l2535
  2927   002930                     u2870:
  2928   002930  0012               	return		;funcret
  2929   002932                     __end_of_memcpy:
  2930                           	callstack 0
  2931                           
  2932 ;; *************** function _labs *****************
  2933 ;; Defined at:
  2934 ;;		line 1 in file "C:\Program Files\Microchip\xc8\v2.46\pic\sources\c99\common\labs.c"
  2935 ;; Parameters:    Size  Location     Type
  2936 ;;  a               4    0[COMRAM] long 
  2937 ;; Auto vars:     Size  Location     Type
  2938 ;;		None
  2939 ;; Return value:  Size  Location     Type
  2940 ;;                  4    0[COMRAM] long 
  2941 ;; Registers used:
  2942 ;;		wreg, status,2, status,0
  2943 ;; Tracked objects:
  2944 ;;		On entry : 0/0
  2945 ;;		On exit  : 0/0
  2946 ;;		Unchanged: 0/0
  2947 ;; Data sizes:     COMRAM   BANK0   BANK1   BANK2   BANK3   BANK4   BANK5   BANK6   BANK7
  2948 ;;      Params:         4       0       0       0       0       0       0       0       0
  2949 ;;      Locals:         0       0       0       0       0       0       0       0       0
  2950 ;;      Temps:          4       0       0       0       0       0       0       0       0
  2951 ;;      Totals:         8       0       0       0       0       0       0       0       0
  2952 ;;Total ram usage:        8 bytes
  2953 ;; Hardware stack levels used: 1
  2954 ;; This function calls:
  2955 ;;		Nothing
  2956 ;; This function is called by:
  2957 ;;		_efgtoa
  2958 ;; This function uses a non-reentrant model
  2959 ;;
  2960                           
  2961                           	psect	text11
  2962   0027D4                     __ptext11:
  2963                           	callstack 0
  2964   0027D4                     _labs:
  2965                           	callstack 26
  2966   0027D4  BE04               	btfsc	(labs@a+3)^0,7,c
  2967   0027D6  EFEF  F013         	goto	u2761
  2968   0027DA  EFF1  F013         	goto	u2760
  2969   0027DE                     u2761:
  2970   0027DE  EFFB  F013         	goto	l2501
  2971   0027E2                     u2760:
  2972   0027E2  C001  F001         	movff	labs@a,?_labs
  2973   0027E6  C002  F002         	movff	labs@a+1,?_labs+1
  2974   0027EA  C003  F003         	movff	labs@a+2,?_labs+2
  2975   0027EE  C004  F004         	movff	labs@a+3,?_labs+3
  2976   0027F2  EF14  F014         	goto	l840
  2977   0027F6                     l2501:
  2978   0027F6  C001  F005         	movff	labs@a,??_labs
  2979   0027FA  C002  F006         	movff	labs@a+1,??_labs+1
  2980   0027FE  C003  F007         	movff	labs@a+2,??_labs+2
  2981   002802  C004  F008         	movff	labs@a+3,??_labs+3
  2982   002806  1E05               	comf	??_labs^0,f,c
  2983   002808  1E06               	comf	(??_labs+1)^0,f,c
  2984   00280A  1E07               	comf	(??_labs+2)^0,f,c
  2985   00280C  1E08               	comf	(??_labs+3)^0,f,c
  2986   00280E  2A05               	incf	??_labs^0,f,c
  2987   002810  0E00               	movlw	0
  2988   002812  2206               	addwfc	(??_labs+1)^0,f,c
  2989   002814  2207               	addwfc	(??_labs+2)^0,f,c
  2990   002816  2208               	addwfc	(??_labs+3)^0,f,c
  2991   002818  C005  F001         	movff	??_labs,?_labs
  2992   00281C  C006  F002         	movff	??_labs+1,?_labs+1
  2993   002820  C007  F003         	movff	??_labs+2,?_labs+2
  2994   002824  C008  F004         	movff	??_labs+3,?_labs+3
  2995   002828                     l840:
  2996   002828  0012               	return		;funcret
  2997   00282A                     __end_of_labs:
  2998                           	callstack 0
  2999                           
  3000 ;; *************** function _floorf *****************
  3001 ;; Defined at:
  3002 ;;		line 3 in file "C:\Program Files\Microchip\xc8\v2.46\pic\sources\c99\common\floorf.c"
  3003 ;; Parameters:    Size  Location     Type
  3004 ;;  x               4   25[COMRAM] float 
  3005 ;; Auto vars:     Size  Location     Type
  3006 ;;  u               4   41[COMRAM] struct .
  3007 ;;  m               4   35[COMRAM] unsigned long 
  3008 ;;  e               2   39[COMRAM] int 
  3009 ;; Return value:  Size  Location     Type
  3010 ;;                  4   25[COMRAM] float 
  3011 ;; Registers used:
  3012 ;;		wreg, status,2, status,0
  3013 ;; Tracked objects:
  3014 ;;		On entry : 0/0
  3015 ;;		On exit  : 0/0
  3016 ;;		Unchanged: 0/0
  3017 ;; Data sizes:     COMRAM   BANK0   BANK1   BANK2   BANK3   BANK4   BANK5   BANK6   BANK7
  3018 ;;      Params:         4       0       0       0       0       0       0       0       0
  3019 ;;      Locals:        10       0       0       0       0       0       0       0       0
  3020 ;;      Temps:          6       0       0       0       0       0       0       0       0
  3021 ;;      Totals:        20       0       0       0       0       0       0       0       0
  3022 ;;Total ram usage:       20 bytes
  3023 ;; Hardware stack levels used: 1
  3024 ;; This function calls:
  3025 ;;		Nothing
  3026 ;; This function is called by:
  3027 ;;		_efgtoa
  3028 ;; This function uses a non-reentrant model
  3029 ;;
  3030                           
  3031                           	psect	text12
  3032   001E42                     __ptext12:
  3033                           	callstack 0
  3034   001E42                     _floorf:
  3035                           	callstack 26
  3036   001E42  C049  F02A         	movff	floorf@F521,floorf@u
  3037   001E46  C04A  F02B         	movff	floorf@F521+1,floorf@u+1
  3038   001E4A  C04B  F02C         	movff	floorf@F521+2,floorf@u+2
  3039   001E4E  C04C  F02D         	movff	floorf@F521+3,floorf@u+3
  3040   001E52  C01A  F02A         	movff	floorf@x,floorf@u
  3041   001E56  C01B  F02B         	movff	floorf@x+1,floorf@u+1
  3042   001E5A  C01C  F02C         	movff	floorf@x+2,floorf@u+2
  3043   001E5E  C01D  F02D         	movff	floorf@x+3,floorf@u+3
  3044   001E62  0E81               	movlw	129
  3045   001E64  6E1E               	movwf	??_floorf^0,c
  3046   001E66  0EFF               	movlw	255
  3047   001E68  6E1F               	movwf	(??_floorf+1)^0,c
  3048   001E6A  C02A  F020         	movff	floorf@u,??_floorf+2
  3049   001E6E  C02B  F021         	movff	floorf@u+1,??_floorf+3
  3050   001E72  C02C  F022         	movff	floorf@u+2,??_floorf+4
  3051   001E76  C02D  F023         	movff	floorf@u+3,??_floorf+5
  3052   001E7A  0E18               	movlw	24
  3053   001E7C  EF45  F00F         	goto	u2770
  3054   001E80                     u2775:
  3055   001E80  90D8               	bcf	status,0,c
  3056   001E82  3223               	rrcf	(??_floorf+5)^0,f,c
  3057   001E84  3222               	rrcf	(??_floorf+4)^0,f,c
  3058   001E86  3221               	rrcf	(??_floorf+3)^0,f,c
  3059   001E88  3220               	rrcf	(??_floorf+2)^0,f,c
  3060   001E8A                     u2770:
  3061   001E8A  2EE8               	decfsz	wreg,f,c
  3062   001E8C  EF40  F00F         	goto	u2775
  3063   001E90  5020               	movf	(??_floorf+2)^0,w,c
  3064   001E92  241E               	addwf	??_floorf^0,w,c
  3065   001E94  6E28               	movwf	floorf@e^0,c
  3066   001E96  0E00               	movlw	0
  3067   001E98  201F               	addwfc	(??_floorf+1)^0,w,c
  3068   001E9A  6E29               	movwf	(floorf@e+1)^0,c
  3069   001E9C  BE29               	btfsc	(floorf@e+1)^0,7,c
  3070   001E9E  EF5A  F00F         	goto	u2781
  3071   001EA2  5029               	movf	(floorf@e+1)^0,w,c
  3072   001EA4  E109               	bnz	u2780
  3073   001EA6  0E17               	movlw	23
  3074   001EA8  5C28               	subwf	floorf@e^0,w,c
  3075   001EAA  A0D8               	btfss	status,0,c
  3076   001EAC  EF5A  F00F         	goto	u2781
  3077   001EB0  EF5C  F00F         	goto	u2780
  3078   001EB4                     u2781:
  3079   001EB4  EF66  F00F         	goto	l2511
  3080   001EB8                     u2780:
  3081   001EB8                     l2509:
  3082   001EB8  C01A  F01A         	movff	floorf@x,?_floorf
  3083   001EBC  C01B  F01B         	movff	floorf@x+1,?_floorf+1
  3084   001EC0  C01C  F01C         	movff	floorf@x+2,?_floorf+2
  3085   001EC4  C01D  F01D         	movff	floorf@x+3,?_floorf+3
  3086   001EC8  EF29  F010         	goto	l826
  3087   001ECC                     l2511:
  3088   001ECC  BE29               	btfsc	(floorf@e+1)^0,7,c
  3089   001ECE  EF6B  F00F         	goto	u2791
  3090   001ED2  EF6D  F00F         	goto	u2790
  3091   001ED6                     u2791:
  3092   001ED6  EFDD  F00F         	goto	l2521
  3093   001EDA                     u2790:
  3094   001EDA  C028  F01E         	movff	floorf@e,??_floorf
  3095   001EDE  0EFF               	movlw	255
  3096   001EE0  6E1F               	movwf	(??_floorf+1)^0,c
  3097   001EE2  0EFF               	movlw	255
  3098   001EE4  6E20               	movwf	(??_floorf+2)^0,c
  3099   001EE6  0E7F               	movlw	127
  3100   001EE8  6E21               	movwf	(??_floorf+3)^0,c
  3101   001EEA  0E00               	movlw	0
  3102   001EEC  6E22               	movwf	(??_floorf+4)^0,c
  3103   001EEE                     u2805:
  3104   001EEE  661E               	tstfsz	??_floorf^0,c
  3105   001EF0  EF7C  F00F         	goto	u2806
  3106   001EF4  EF84  F00F         	goto	u2807
  3107   001EF8                     u2806:
  3108   001EF8  3422               	rlcf	(??_floorf+4)^0,w,c
  3109   001EFA  3222               	rrcf	(??_floorf+4)^0,f,c
  3110   001EFC  3221               	rrcf	(??_floorf+3)^0,f,c
  3111   001EFE  3220               	rrcf	(??_floorf+2)^0,f,c
  3112   001F00  321F               	rrcf	(??_floorf+1)^0,f,c
  3113   001F02  2E1E               	decfsz	??_floorf^0,f,c
  3114   001F04  EF77  F00F         	goto	u2805
  3115   001F08                     u2807:
  3116   001F08  C01F  F024         	movff	??_floorf+1,floorf@m
  3117   001F0C  C020  F025         	movff	??_floorf+2,floorf@m+1
  3118   001F10  C021  F026         	movff	??_floorf+3,floorf@m+2
  3119   001F14  C022  F027         	movff	??_floorf+4,floorf@m+3
  3120   001F18  5024               	movf	floorf@m^0,w,c
  3121   001F1A  142A               	andwf	floorf@u^0,w,c
  3122   001F1C  6E1E               	movwf	??_floorf^0,c
  3123   001F1E  5025               	movf	(floorf@m+1)^0,w,c
  3124   001F20  142B               	andwf	(floorf@u+1)^0,w,c
  3125   001F22  6E1F               	movwf	(??_floorf+1)^0,c
  3126   001F24  5026               	movf	(floorf@m+2)^0,w,c
  3127   001F26  142C               	andwf	(floorf@u+2)^0,w,c
  3128   001F28  6E20               	movwf	(??_floorf+2)^0,c
  3129   001F2A  5027               	movf	(floorf@m+3)^0,w,c
  3130   001F2C  142D               	andwf	(floorf@u+3)^0,w,c
  3131   001F2E  6E21               	movwf	(??_floorf+3)^0,c
  3132   001F30  501E               	movf	??_floorf^0,w,c
  3133   001F32  101F               	iorwf	(??_floorf+1)^0,w,c
  3134   001F34  1020               	iorwf	(??_floorf+2)^0,w,c
  3135   001F36  1021               	iorwf	(??_floorf+3)^0,w,c
  3136   001F38  A4D8               	btfss	status,2,c
  3137   001F3A  EFA1  F00F         	goto	u2811
  3138   001F3E  EFA3  F00F         	goto	u2810
  3139   001F42                     u2811:
  3140   001F42  EFA5  F00F         	goto	l2517
  3141   001F46                     u2810:
  3142   001F46  EF5C  F00F         	goto	l2509
  3143   001F4A                     l2517:
  3144   001F4A  C02A  F01E         	movff	floorf@u,??_floorf
  3145   001F4E  C02B  F01F         	movff	floorf@u+1,??_floorf+1
  3146   001F52  C02C  F020         	movff	floorf@u+2,??_floorf+2
  3147   001F56  C02D  F021         	movff	floorf@u+3,??_floorf+3
  3148   001F5A  0E20               	movlw	32
  3149   001F5C  EFB5  F00F         	goto	u2820
  3150   001F60                     u2825:
  3151   001F60  90D8               	bcf	status,0,c
  3152   001F62  3221               	rrcf	(??_floorf+3)^0,f,c
  3153   001F64  3220               	rrcf	(??_floorf+2)^0,f,c
  3154   001F66  321F               	rrcf	(??_floorf+1)^0,f,c
  3155   001F68  321E               	rrcf	??_floorf^0,f,c
  3156   001F6A                     u2820:
  3157   001F6A  2EE8               	decfsz	wreg,f,c
  3158   001F6C  EFB0  F00F         	goto	u2825
  3159   001F70  501E               	movf	??_floorf^0,w,c
  3160   001F72  101F               	iorwf	(??_floorf+1)^0,w,c
  3161   001F74  1020               	iorwf	(??_floorf+2)^0,w,c
  3162   001F76  1021               	iorwf	(??_floorf+3)^0,w,c
  3163   001F78  B4D8               	btfsc	status,2,c
  3164   001F7A  EFC1  F00F         	goto	u2831
  3165   001F7E  EFC3  F00F         	goto	u2830
  3166   001F82                     u2831:
  3167   001F82  EFCB  F00F         	goto	l829
  3168   001F86                     u2830:
  3169   001F86  5024               	movf	floorf@m^0,w,c
  3170   001F88  262A               	addwf	floorf@u^0,f,c
  3171   001F8A  5025               	movf	(floorf@m+1)^0,w,c
  3172   001F8C  222B               	addwfc	(floorf@u+1)^0,f,c
  3173   001F8E  5026               	movf	(floorf@m+2)^0,w,c
  3174   001F90  222C               	addwfc	(floorf@u+2)^0,f,c
  3175   001F92  5027               	movf	(floorf@m+3)^0,w,c
  3176   001F94  222D               	addwfc	(floorf@u+3)^0,f,c
  3177   001F96                     l829:
  3178   001F96  1C24               	comf	floorf@m^0,w,c
  3179   001F98  6E1E               	movwf	??_floorf^0,c
  3180   001F9A  1C25               	comf	(floorf@m+1)^0,w,c
  3181   001F9C  6E1F               	movwf	(??_floorf+1)^0,c
  3182   001F9E  1C26               	comf	(floorf@m+2)^0,w,c
  3183   001FA0  6E20               	movwf	(??_floorf+2)^0,c
  3184   001FA2  1C27               	comf	(floorf@m+3)^0,w,c
  3185   001FA4  6E21               	movwf	(??_floorf+3)^0,c
  3186   001FA6  501E               	movf	??_floorf^0,w,c
  3187   001FA8  162A               	andwf	floorf@u^0,f,c
  3188   001FAA  501F               	movf	(??_floorf+1)^0,w,c
  3189   001FAC  162B               	andwf	(floorf@u+1)^0,f,c
  3190   001FAE  5020               	movf	(??_floorf+2)^0,w,c
  3191   001FB0  162C               	andwf	(floorf@u+2)^0,f,c
  3192   001FB2  5021               	movf	(??_floorf+3)^0,w,c
  3193   001FB4  162D               	andwf	(floorf@u+3)^0,f,c
  3194   001FB6  EF21  F010         	goto	l2529
  3195   001FBA                     l2521:
  3196   001FBA  C02A  F01E         	movff	floorf@u,??_floorf
  3197   001FBE  C02B  F01F         	movff	floorf@u+1,??_floorf+1
  3198   001FC2  C02C  F020         	movff	floorf@u+2,??_floorf+2
  3199   001FC6  C02D  F021         	movff	floorf@u+3,??_floorf+3
  3200   001FCA  0E20               	movlw	32
  3201   001FCC  EFED  F00F         	goto	u2840
  3202   001FD0                     u2845:
  3203   001FD0  90D8               	bcf	status,0,c
  3204   001FD2  3221               	rrcf	(??_floorf+3)^0,f,c
  3205   001FD4  3220               	rrcf	(??_floorf+2)^0,f,c
  3206   001FD6  321F               	rrcf	(??_floorf+1)^0,f,c
  3207   001FD8  321E               	rrcf	??_floorf^0,f,c
  3208   001FDA                     u2840:
  3209   001FDA  2EE8               	decfsz	wreg,f,c
  3210   001FDC  EFE8  F00F         	goto	u2845
  3211   001FE0  501E               	movf	??_floorf^0,w,c
  3212   001FE2  101F               	iorwf	(??_floorf+1)^0,w,c
  3213   001FE4  1020               	iorwf	(??_floorf+2)^0,w,c
  3214   001FE6  1021               	iorwf	(??_floorf+3)^0,w,c
  3215   001FE8  A4D8               	btfss	status,2,c
  3216   001FEA  EFF9  F00F         	goto	u2851
  3217   001FEE  EFFB  F00F         	goto	u2850
  3218   001FF2                     u2851:
  3219   001FF2  EF05  F010         	goto	l2525
  3220   001FF6                     u2850:
  3221   001FF6  0E00               	movlw	0
  3222   001FF8  6E2A               	movwf	floorf@u^0,c
  3223   001FFA  0E00               	movlw	0
  3224   001FFC  6E2B               	movwf	(floorf@u+1)^0,c
  3225   001FFE  0E00               	movlw	0
  3226   002000  6E2C               	movwf	(floorf@u+2)^0,c
  3227   002002  0E00               	movlw	0
  3228   002004  6E2D               	movwf	(floorf@u+3)^0,c
  3229   002006  EF21  F010         	goto	l2529
  3230   00200A                     l2525:
  3231   00200A  90D8               	bcf	status,0,c
  3232   00200C  342A               	rlcf	floorf@u^0,w,c
  3233   00200E  6E1E               	movwf	??_floorf^0,c
  3234   002010  342B               	rlcf	(floorf@u+1)^0,w,c
  3235   002012  6E1F               	movwf	(??_floorf+1)^0,c
  3236   002014  342C               	rlcf	(floorf@u+2)^0,w,c
  3237   002016  6E20               	movwf	(??_floorf+2)^0,c
  3238   002018  342D               	rlcf	(floorf@u+3)^0,w,c
  3239   00201A  6E21               	movwf	(??_floorf+3)^0,c
  3240   00201C  501E               	movf	??_floorf^0,w,c
  3241   00201E  101F               	iorwf	(??_floorf+1)^0,w,c
  3242   002020  1020               	iorwf	(??_floorf+2)^0,w,c
  3243   002022  1021               	iorwf	(??_floorf+3)^0,w,c
  3244   002024  B4D8               	btfsc	status,2,c
  3245   002026  EF17  F010         	goto	u2861
  3246   00202A  EF19  F010         	goto	u2860
  3247   00202E                     u2861:
  3248   00202E  EF21  F010         	goto	l2529
  3249   002032                     u2860:
  3250   002032  0E00               	movlw	0
  3251   002034  6E2A               	movwf	floorf@u^0,c
  3252   002036  0E00               	movlw	0
  3253   002038  6E2B               	movwf	(floorf@u+1)^0,c
  3254   00203A  0E80               	movlw	128
  3255   00203C  6E2C               	movwf	(floorf@u+2)^0,c
  3256   00203E  0EBF               	movlw	191
  3257   002040  6E2D               	movwf	(floorf@u+3)^0,c
  3258   002042                     l2529:
  3259   002042  C02A  F01A         	movff	floorf@u,?_floorf
  3260   002046  C02B  F01B         	movff	floorf@u+1,?_floorf+1
  3261   00204A  C02C  F01C         	movff	floorf@u+2,?_floorf+2
  3262   00204E  C02D  F01D         	movff	floorf@u+3,?_floorf+3
  3263   002052                     l826:
  3264   002052  0012               	return		;funcret
  3265   002054                     __end_of_floorf:
  3266                           	callstack 0
  3267                           
  3268 ;; *************** function ___fpclassifyf *****************
  3269 ;; Defined at:
  3270 ;;		line 4 in file "C:\Program Files\Microchip\xc8\v2.46\pic\sources\c99\common\__fpclassifyf.c"
  3271 ;; Parameters:    Size  Location     Type
  3272 ;;  x               4    0[COMRAM] float 
  3273 ;; Auto vars:     Size  Location     Type
  3274 ;;  u               4   10[COMRAM] struct .
  3275 ;;  e               2    8[COMRAM] int 
  3276 ;; Return value:  Size  Location     Type
  3277 ;;                  2    0[COMRAM] int 
  3278 ;; Registers used:
  3279 ;;		wreg, status,2, status,0
  3280 ;; Tracked objects:
  3281 ;;		On entry : 0/0
  3282 ;;		On exit  : 0/0
  3283 ;;		Unchanged: 0/0
  3284 ;; Data sizes:     COMRAM   BANK0   BANK1   BANK2   BANK3   BANK4   BANK5   BANK6   BANK7
  3285 ;;      Params:         4       0       0       0       0       0       0       0       0
  3286 ;;      Locals:         6       0       0       0       0       0       0       0       0
  3287 ;;      Temps:          4       0       0       0       0       0       0       0       0
  3288 ;;      Totals:        14       0       0       0       0       0       0       0       0
  3289 ;;Total ram usage:       14 bytes
  3290 ;; Hardware stack levels used: 1
  3291 ;; This function calls:
  3292 ;;		Nothing
  3293 ;; This function is called by:
  3294 ;;		_efgtoa
  3295 ;; This function uses a non-reentrant model
  3296 ;;
  3297                           
  3298                           	psect	text13
  3299   0023F6                     __ptext13:
  3300                           	callstack 0
  3301   0023F6                     ___fpclassifyf:
  3302                           	callstack 26
  3303   0023F6  C04D  F00B         	movff	___fpclassifyf@F465,___fpclassifyf@u
  3304   0023FA  C04E  F00C         	movff	___fpclassifyf@F465+1,___fpclassifyf@u+1
  3305   0023FE  C04F  F00D         	movff	___fpclassifyf@F465+2,___fpclassifyf@u+2
  3306   002402  C050  F00E         	movff	___fpclassifyf@F465+3,___fpclassifyf@u+3
  3307   002406  C001  F00B         	movff	___fpclassifyf@x,___fpclassifyf@u
  3308   00240A  C002  F00C         	movff	___fpclassifyf@x+1,___fpclassifyf@u+1
  3309   00240E  C003  F00D         	movff	___fpclassifyf@x+2,___fpclassifyf@u+2
  3310   002412  C004  F00E         	movff	___fpclassifyf@x+3,___fpclassifyf@u+3
  3311   002416  C00B  F005         	movff	___fpclassifyf@u,??___fpclassifyf
  3312   00241A  C00C  F006         	movff	___fpclassifyf@u+1,??___fpclassifyf+1
  3313   00241E  C00D  F007         	movff	___fpclassifyf@u+2,??___fpclassifyf+2
  3314   002422  C00E  F008         	movff	___fpclassifyf@u+3,??___fpclassifyf+3
  3315   002426  0E18               	movlw	24
  3316   002428  EF1B  F012         	goto	u2680
  3317   00242C                     u2685:
  3318   00242C  90D8               	bcf	status,0,c
  3319   00242E  3208               	rrcf	(??___fpclassifyf+3)^0,f,c
  3320   002430  3207               	rrcf	(??___fpclassifyf+2)^0,f,c
  3321   002432  3206               	rrcf	(??___fpclassifyf+1)^0,f,c
  3322   002434  3205               	rrcf	??___fpclassifyf^0,f,c
  3323   002436                     u2680:
  3324   002436  2EE8               	decfsz	wreg,f,c
  3325   002438  EF16  F012         	goto	u2685
  3326   00243C  5005               	movf	??___fpclassifyf^0,w,c
  3327   00243E  6E09               	movwf	___fpclassifyf@e^0,c
  3328   002440  6A0A               	clrf	(___fpclassifyf@e+1)^0,c
  3329   002442  5009               	movf	___fpclassifyf@e^0,w,c
  3330   002444  100A               	iorwf	(___fpclassifyf@e+1)^0,w,c
  3331   002446  A4D8               	btfss	status,2,c
  3332   002448  EF28  F012         	goto	u2691
  3333   00244C  EF2A  F012         	goto	u2690
  3334   002450                     u2691:
  3335   002450  EF4A  F012         	goto	l2483
  3336   002454                     u2690:
  3337   002454  90D8               	bcf	status,0,c
  3338   002456  340B               	rlcf	___fpclassifyf@u^0,w,c
  3339   002458  6E05               	movwf	??___fpclassifyf^0,c
  3340   00245A  340C               	rlcf	(___fpclassifyf@u+1)^0,w,c
  3341   00245C  6E06               	movwf	(??___fpclassifyf+1)^0,c
  3342   00245E  340D               	rlcf	(___fpclassifyf@u+2)^0,w,c
  3343   002460  6E07               	movwf	(??___fpclassifyf+2)^0,c
  3344   002462  340E               	rlcf	(___fpclassifyf@u+3)^0,w,c
  3345   002464  6E08               	movwf	(??___fpclassifyf+3)^0,c
  3346   002466  5005               	movf	??___fpclassifyf^0,w,c
  3347   002468  1006               	iorwf	(??___fpclassifyf+1)^0,w,c
  3348   00246A  1007               	iorwf	(??___fpclassifyf+2)^0,w,c
  3349   00246C  1008               	iorwf	(??___fpclassifyf+3)^0,w,c
  3350   00246E  A4D8               	btfss	status,2,c
  3351   002470  EF3C  F012         	goto	u2701
  3352   002474  EF3E  F012         	goto	u2700
  3353   002478                     u2701:
  3354   002478  EF44  F012         	goto	l2479
  3355   00247C                     u2700:
  3356   00247C  0E00               	movlw	0
  3357   00247E  6E02               	movwf	(?___fpclassifyf+1)^0,c
  3358   002480  0E02               	movlw	2
  3359   002482  6E01               	movwf	?___fpclassifyf^0,c
  3360   002484  EF79  F012         	goto	l819
  3361   002488                     l2479:
  3362   002488  0E00               	movlw	0
  3363   00248A  6E02               	movwf	(?___fpclassifyf+1)^0,c
  3364   00248C  0E03               	movlw	3
  3365   00248E  6E01               	movwf	?___fpclassifyf^0,c
  3366   002490  EF79  F012         	goto	l819
  3367   002494                     l2483:
  3368   002494  2809               	incf	___fpclassifyf@e^0,w,c
  3369   002496  100A               	iorwf	(___fpclassifyf@e+1)^0,w,c
  3370   002498  A4D8               	btfss	status,2,c
  3371   00249A  EF51  F012         	goto	u2711
  3372   00249E  EF53  F012         	goto	u2710
  3373   0024A2                     u2711:
  3374   0024A2  EF75  F012         	goto	l2489
  3375   0024A6                     u2710:
  3376   0024A6  C00B  F005         	movff	___fpclassifyf@u,??___fpclassifyf
  3377   0024AA  C00C  F006         	movff	___fpclassifyf@u+1,??___fpclassifyf+1
  3378   0024AE  C00D  F007         	movff	___fpclassifyf@u+2,??___fpclassifyf+2
  3379   0024B2  C00E  F008         	movff	___fpclassifyf@u+3,??___fpclassifyf+3
  3380   0024B6  0E09               	movlw	9
  3381   0024B8                     u2725:
  3382   0024B8  90D8               	bcf	status,0,c
  3383   0024BA  3605               	rlcf	??___fpclassifyf^0,f,c
  3384   0024BC  3606               	rlcf	(??___fpclassifyf+1)^0,f,c
  3385   0024BE  3607               	rlcf	(??___fpclassifyf+2)^0,f,c
  3386   0024C0  3608               	rlcf	(??___fpclassifyf+3)^0,f,c
  3387   0024C2  2EE8               	decfsz	wreg,f,c
  3388   0024C4  EF5C  F012         	goto	u2725
  3389   0024C8  5005               	movf	??___fpclassifyf^0,w,c
  3390   0024CA  1006               	iorwf	(??___fpclassifyf+1)^0,w,c
  3391   0024CC  1007               	iorwf	(??___fpclassifyf+2)^0,w,c
  3392   0024CE  1008               	iorwf	(??___fpclassifyf+3)^0,w,c
  3393   0024D0  B4D8               	btfsc	status,2,c
  3394   0024D2  EF6D  F012         	goto	u2731
  3395   0024D6  EF70  F012         	goto	u2730
  3396   0024DA                     u2731:
  3397   0024DA  0E01               	movlw	1
  3398   0024DC  EF71  F012         	goto	u2740
  3399   0024E0                     u2730:
  3400   0024E0  0E00               	movlw	0
  3401   0024E2                     u2740:
  3402   0024E2  6E01               	movwf	?___fpclassifyf^0,c
  3403   0024E4  6A02               	clrf	(?___fpclassifyf+1)^0,c
  3404   0024E6  EF79  F012         	goto	l819
  3405   0024EA                     l2489:
  3406   0024EA  0E00               	movlw	0
  3407   0024EC  6E02               	movwf	(?___fpclassifyf+1)^0,c
  3408   0024EE  0E04               	movlw	4
  3409   0024F0  6E01               	movwf	?___fpclassifyf^0,c
  3410   0024F2                     l819:
  3411   0024F2  0012               	return		;funcret
  3412   0024F4                     __end_of___fpclassifyf:
  3413                           	callstack 0
  3414                           
  3415 ;; *************** function ___fltol *****************
  3416 ;; Defined at:
  3417 ;;		line 43 in file "C:\Program Files\Microchip\xc8\v2.46\pic\sources\c99\common\fltol.c"
  3418 ;; Parameters:    Size  Location     Type
  3419 ;;  f1              4    0[COMRAM] int 
  3420 ;; Auto vars:     Size  Location     Type
  3421 ;;  exp1            1    9[COMRAM] unsigned char 
  3422 ;;  sign1           1    8[COMRAM] unsigned char 
  3423 ;; Return value:  Size  Location     Type
  3424 ;;                  4    0[COMRAM] long 
  3425 ;; Registers used:
  3426 ;;		wreg, status,2, status,0
  3427 ;; Tracked objects:
  3428 ;;		On entry : 0/0
  3429 ;;		On exit  : 0/0
  3430 ;;		Unchanged: 0/0
  3431 ;; Data sizes:     COMRAM   BANK0   BANK1   BANK2   BANK3   BANK4   BANK5   BANK6   BANK7
  3432 ;;      Params:         4       0       0       0       0       0       0       0       0
  3433 ;;      Locals:         2       0       0       0       0       0       0       0       0
  3434 ;;      Temps:          4       0       0       0       0       0       0       0       0
  3435 ;;      Totals:        10       0       0       0       0       0       0       0       0
  3436 ;;Total ram usage:       10 bytes
  3437 ;; Hardware stack levels used: 1
  3438 ;; This function calls:
  3439 ;;		Nothing
  3440 ;; This function is called by:
  3441 ;;		_efgtoa
  3442 ;; This function uses a non-reentrant model
  3443 ;;
  3444                           
  3445                           	psect	text14
  3446   0021EC                     __ptext14:
  3447                           	callstack 0
  3448   0021EC                     ___fltol:
  3449                           	callstack 26
  3450   0021EC  3403               	rlcf	(___fltol@f1+2)^0,w,c
  3451   0021EE  3404               	rlcf	(___fltol@f1+3)^0,w,c
  3452   0021F0  6E0A               	movwf	___fltol@exp1^0,c
  3453   0021F2  500A               	movf	___fltol@exp1^0,w,c
  3454   0021F4  A4D8               	btfss	status,2,c
  3455   0021F6  EFFF  F010         	goto	u2591
  3456   0021FA  EF01  F011         	goto	u2590
  3457   0021FE                     u2591:
  3458   0021FE  EF0B  F011         	goto	l2421
  3459   002202                     u2590:
  3460   002202                     l2417:
  3461   002202  0E00               	movlw	0
  3462   002204  6E01               	movwf	?___fltol^0,c
  3463   002206  0E00               	movlw	0
  3464   002208  6E02               	movwf	(?___fltol+1)^0,c
  3465   00220A  0E00               	movlw	0
  3466   00220C  6E03               	movwf	(?___fltol+2)^0,c
  3467   00220E  0E00               	movlw	0
  3468   002210  6E04               	movwf	(?___fltol+3)^0,c
  3469   002212  EF78  F011         	goto	l319
  3470   002216                     l2421:
  3471   002216  C001  F005         	movff	___fltol@f1,??___fltol
  3472   00221A  C002  F006         	movff	___fltol@f1+1,??___fltol+1
  3473   00221E  C003  F007         	movff	___fltol@f1+2,??___fltol+2
  3474   002222  C004  F008         	movff	___fltol@f1+3,??___fltol+3
  3475   002226  0E20               	movlw	32
  3476   002228  EF1B  F011         	goto	u2600
  3477   00222C                     u2605:
  3478   00222C  90D8               	bcf	status,0,c
  3479   00222E  3208               	rrcf	(??___fltol+3)^0,f,c
  3480   002230  3207               	rrcf	(??___fltol+2)^0,f,c
  3481   002232  3206               	rrcf	(??___fltol+1)^0,f,c
  3482   002234  3205               	rrcf	??___fltol^0,f,c
  3483   002236                     u2600:
  3484   002236  2EE8               	decfsz	wreg,f,c
  3485   002238  EF16  F011         	goto	u2605
  3486   00223C  5005               	movf	??___fltol^0,w,c
  3487   00223E  6E09               	movwf	___fltol@sign1^0,c
  3488   002240  8E03               	bsf	(___fltol@f1+2)^0,7,c
  3489   002242  0EFF               	movlw	255
  3490   002244  1601               	andwf	___fltol@f1^0,f,c
  3491   002246  0EFF               	movlw	255
  3492   002248  1602               	andwf	(___fltol@f1+1)^0,f,c
  3493   00224A  0EFF               	movlw	255
  3494   00224C  1603               	andwf	(___fltol@f1+2)^0,f,c
  3495   00224E  0E00               	movlw	0
  3496   002250  1604               	andwf	(___fltol@f1+3)^0,f,c
  3497   002252  0E96               	movlw	150
  3498   002254  5E0A               	subwf	___fltol@exp1^0,f,c
  3499   002256  BE0A               	btfsc	___fltol@exp1^0,7,c
  3500   002258  EF32  F011         	goto	u2610
  3501   00225C  EF30  F011         	goto	u2611
  3502   002260                     u2611:
  3503   002260  EF48  F011         	goto	l2441
  3504   002264                     u2610:
  3505   002264  500A               	movf	___fltol@exp1^0,w,c
  3506   002266  0A80               	xorlw	128
  3507   002268  0F97               	addlw	151
  3508   00226A  B0D8               	btfsc	status,0,c
  3509   00226C  EF3A  F011         	goto	u2621
  3510   002270  EF3C  F011         	goto	u2620
  3511   002274                     u2621:
  3512   002274  EF3E  F011         	goto	l2437
  3513   002278                     u2620:
  3514   002278  EF01  F011         	goto	l2417
  3515   00227C                     l2437:
  3516   00227C  90D8               	bcf	status,0,c
  3517   00227E  3204               	rrcf	(___fltol@f1+3)^0,f,c
  3518   002280  3203               	rrcf	(___fltol@f1+2)^0,f,c
  3519   002282  3202               	rrcf	(___fltol@f1+1)^0,f,c
  3520   002284  3201               	rrcf	___fltol@f1^0,f,c
  3521   002286  3E0A               	incfsz	___fltol@exp1^0,f,c
  3522   002288  EF3E  F011         	goto	l2437
  3523   00228C  EF60  F011         	goto	l2451
  3524   002290                     l2441:
  3525   002290  0E1F               	movlw	31
  3526   002292  640A               	cpfsgt	___fltol@exp1^0,c
  3527   002294  EF4E  F011         	goto	u2631
  3528   002298  EF50  F011         	goto	u2630
  3529   00229C                     u2631:
  3530   00229C  EF58  F011         	goto	l2449
  3531   0022A0                     u2630:
  3532   0022A0  EF01  F011         	goto	l2417
  3533   0022A4                     l2447:
  3534   0022A4  90D8               	bcf	status,0,c
  3535   0022A6  3601               	rlcf	___fltol@f1^0,f,c
  3536   0022A8  3602               	rlcf	(___fltol@f1+1)^0,f,c
  3537   0022AA  3603               	rlcf	(___fltol@f1+2)^0,f,c
  3538   0022AC  3604               	rlcf	(___fltol@f1+3)^0,f,c
  3539   0022AE  060A               	decf	___fltol@exp1^0,f,c
  3540   0022B0                     l2449:
  3541   0022B0  500A               	movf	___fltol@exp1^0,w,c
  3542   0022B2  A4D8               	btfss	status,2,c
  3543   0022B4  EF5E  F011         	goto	u2641
  3544   0022B8  EF60  F011         	goto	u2640
  3545   0022BC                     u2641:
  3546   0022BC  EF52  F011         	goto	l2447
  3547   0022C0                     u2640:
  3548   0022C0                     l2451:
  3549   0022C0  5009               	movf	___fltol@sign1^0,w,c
  3550   0022C2  B4D8               	btfsc	status,2,c
  3551   0022C4  EF66  F011         	goto	u2651
  3552   0022C8  EF68  F011         	goto	u2650
  3553   0022CC                     u2651:
  3554   0022CC  EF70  F011         	goto	l2455
  3555   0022D0                     u2650:
  3556   0022D0  1E04               	comf	(___fltol@f1+3)^0,f,c
  3557   0022D2  1E03               	comf	(___fltol@f1+2)^0,f,c
  3558   0022D4  1E02               	comf	(___fltol@f1+1)^0,f,c
  3559   0022D6  6C01               	negf	___fltol@f1^0,c
  3560   0022D8  0E00               	movlw	0
  3561   0022DA  2202               	addwfc	(___fltol@f1+1)^0,f,c
  3562   0022DC  2203               	addwfc	(___fltol@f1+2)^0,f,c
  3563   0022DE  2204               	addwfc	(___fltol@f1+3)^0,f,c
  3564   0022E0                     l2455:
  3565   0022E0  C001  F001         	movff	___fltol@f1,?___fltol
  3566   0022E4  C002  F002         	movff	___fltol@f1+1,?___fltol+1
  3567   0022E8  C003  F003         	movff	___fltol@f1+2,?___fltol+2
  3568   0022EC  C004  F004         	movff	___fltol@f1+3,?___fltol+3
  3569   0022F0                     l319:
  3570   0022F0  0012               	return		;funcret
  3571   0022F2                     __end_of___fltol:
  3572                           	callstack 0
  3573                           
  3574 ;; *************** function ___flsub *****************
  3575 ;; Defined at:
  3576 ;;		line 245 in file "C:\Program Files\Microchip\xc8\v2.46\pic\sources\c99\common\sprcadd.c"
  3577 ;; Parameters:    Size  Location     Type
  3578 ;;  b               4   25[COMRAM] long 
  3579 ;;  a               4   29[COMRAM] long 
  3580 ;; Auto vars:     Size  Location     Type
  3581 ;;		None
  3582 ;; Return value:  Size  Location     Type
  3583 ;;                  4   25[COMRAM] long 
  3584 ;; Registers used:
  3585 ;;		wreg, status,2, status,0, cstack
  3586 ;; Tracked objects:
  3587 ;;		On entry : 0/0
  3588 ;;		On exit  : 0/0
  3589 ;;		Unchanged: 0/0
  3590 ;; Data sizes:     COMRAM   BANK0   BANK1   BANK2   BANK3   BANK4   BANK5   BANK6   BANK7
  3591 ;;      Params:         8       0       0       0       0       0       0       0       0
  3592 ;;      Locals:         0       0       0       0       0       0       0       0       0
  3593 ;;      Temps:          0       0       0       0       0       0       0       0       0
  3594 ;;      Totals:         8       0       0       0       0       0       0       0       0
  3595 ;;Total ram usage:        8 bytes
  3596 ;; Hardware stack levels used: 1
  3597 ;; Hardware stack levels required when called: 1
  3598 ;; This function calls:
  3599 ;;		___fladd
  3600 ;; This function is called by:
  3601 ;;		_efgtoa
  3602 ;; This function uses a non-reentrant model
  3603 ;;
  3604                           
  3605                           	psect	text15
  3606   00282A                     __ptext15:
  3607                           	callstack 0
  3608   00282A                     ___flsub:
  3609                           	callstack 25
  3610   00282A  0E00               	movlw	0
  3611   00282C  1A1E               	xorwf	___flsub@a^0,f,c
  3612   00282E  0E00               	movlw	0
  3613   002830  1A1F               	xorwf	(___flsub@a+1)^0,f,c
  3614   002832  0E00               	movlw	0
  3615   002834  1A20               	xorwf	(___flsub@a+2)^0,f,c
  3616   002836  0E80               	movlw	128
  3617   002838  1A21               	xorwf	(___flsub@a+3)^0,f,c
  3618   00283A  C01A  F001         	movff	___flsub@b,___fladd@b
  3619   00283E  C01B  F002         	movff	___flsub@b+1,___fladd@b+1
  3620   002842  C01C  F003         	movff	___flsub@b+2,___fladd@b+2
  3621   002846  C01D  F004         	movff	___flsub@b+3,___fladd@b+3
  3622   00284A  C01E  F005         	movff	___flsub@a,___fladd@a
  3623   00284E  C01F  F006         	movff	___flsub@a+1,___fladd@a+1
  3624   002852  C020  F007         	movff	___flsub@a+2,___fladd@a+2
  3625   002856  C021  F008         	movff	___flsub@a+3,___fladd@a+3
  3626   00285A  ECDF  F008         	call	___fladd	;wreg free
  3627   00285E  C001  F01A         	movff	?___fladd,?___flsub
  3628   002862  C002  F01B         	movff	?___fladd+1,?___flsub+1
  3629   002866  C003  F01C         	movff	?___fladd+2,?___flsub+2
  3630   00286A  C004  F01D         	movff	?___fladd+3,?___flsub+3
  3631   00286E  0012               	return		;funcret
  3632   002870                     __end_of___flsub:
  3633                           	callstack 0
  3634                           
  3635 ;; *************** function ___fladd *****************
  3636 ;; Defined at:
  3637 ;;		line 10 in file "C:\Program Files\Microchip\xc8\v2.46\pic\sources\c99\common\sprcadd.c"
  3638 ;; Parameters:    Size  Location     Type
  3639 ;;  b               4    0[COMRAM] long 
  3640 ;;  a               4    4[COMRAM] long 
  3641 ;; Auto vars:     Size  Location     Type
  3642 ;;  grs             1   15[COMRAM] unsigned char 
  3643 ;;  bexp            1   14[COMRAM] unsigned char 
  3644 ;;  aexp            1   13[COMRAM] unsigned char 
  3645 ;;  signs           1   12[COMRAM] unsigned char 
  3646 ;; Return value:  Size  Location     Type
  3647 ;;                  4    0[COMRAM] unsigned char 
  3648 ;; Registers used:
  3649 ;;		wreg, status,2, status,0
  3650 ;; Tracked objects:
  3651 ;;		On entry : 0/0
  3652 ;;		On exit  : 0/0
  3653 ;;		Unchanged: 0/0
  3654 ;; Data sizes:     COMRAM   BANK0   BANK1   BANK2   BANK3   BANK4   BANK5   BANK6   BANK7
  3655 ;;      Params:         8       0       0       0       0       0       0       0       0
  3656 ;;      Locals:         4       0       0       0       0       0       0       0       0
  3657 ;;      Temps:          4       0       0       0       0       0       0       0       0
  3658 ;;      Totals:        16       0       0       0       0       0       0       0       0
  3659 ;;Total ram usage:       16 bytes
  3660 ;; Hardware stack levels used: 1
  3661 ;; This function calls:
  3662 ;;		Nothing
  3663 ;; This function is called by:
  3664 ;;		___flsub
  3665 ;;		_efgtoa
  3666 ;; This function uses a non-reentrant model
  3667 ;;
  3668                           
  3669                           	psect	text16
  3670   0011BE                     __ptext16:
  3671                           	callstack 0
  3672   0011BE                     ___fladd:
  3673                           	callstack 25
  3674   0011BE  5004               	movf	(___fladd@b+3)^0,w,c
  3675   0011C0  0B80               	andlw	128
  3676   0011C2  6E0D               	movwf	___fladd@signs^0,c
  3677   0011C4  5004               	movf	(___fladd@b+3)^0,w,c
  3678   0011C6  2404               	addwf	(___fladd@b+3)^0,w,c
  3679   0011C8  6E0F               	movwf	___fladd@bexp^0,c
  3680   0011CA  AE03               	btfss	(___fladd@b+2)^0,7,c
  3681   0011CC  EFEA  F008         	goto	u1681
  3682   0011D0  EFEC  F008         	goto	u1680
  3683   0011D4                     u1681:
  3684   0011D4  EFED  F008         	goto	l1891
  3685   0011D8                     u1680:
  3686   0011D8  800F               	bsf	___fladd@bexp^0,0,c
  3687   0011DA                     l1891:
  3688   0011DA  500F               	movf	___fladd@bexp^0,w,c
  3689   0011DC  B4D8               	btfsc	status,2,c
  3690   0011DE  EFF3  F008         	goto	u1691
  3691   0011E2  EFF5  F008         	goto	u1690
  3692   0011E6                     u1691:
  3693   0011E6  EF0A  F009         	goto	l1901
  3694   0011EA                     u1690:
  3695   0011EA  280F               	incf	___fladd@bexp^0,w,c
  3696   0011EC  A4D8               	btfss	status,2,c
  3697   0011EE  EFFB  F008         	goto	u1701
  3698   0011F2  EFFD  F008         	goto	u1700
  3699   0011F6                     u1701:
  3700   0011F6  EF05  F009         	goto	l1897
  3701   0011FA                     u1700:
  3702   0011FA  0E00               	movlw	0
  3703   0011FC  6E01               	movwf	___fladd@b^0,c
  3704   0011FE  0E00               	movlw	0
  3705   001200  6E02               	movwf	(___fladd@b+1)^0,c
  3706   001202  0E00               	movlw	0
  3707   001204  6E03               	movwf	(___fladd@b+2)^0,c
  3708   001206  0E00               	movlw	0
  3709   001208  6E04               	movwf	(___fladd@b+3)^0,c
  3710   00120A                     l1897:
  3711   00120A  8E03               	bsf	(___fladd@b+2)^0,7,c
  3712   00120C  0E00               	movlw	0
  3713   00120E  6E04               	movwf	(___fladd@b+3)^0,c
  3714   001210  EF12  F009         	goto	l1903
  3715   001214                     l1901:
  3716   001214  0E00               	movlw	0
  3717   001216  6E01               	movwf	___fladd@b^0,c
  3718   001218  0E00               	movlw	0
  3719   00121A  6E02               	movwf	(___fladd@b+1)^0,c
  3720   00121C  0E00               	movlw	0
  3721   00121E  6E03               	movwf	(___fladd@b+2)^0,c
  3722   001220  0E00               	movlw	0
  3723   001222  6E04               	movwf	(___fladd@b+3)^0,c
  3724   001224                     l1903:
  3725   001224  5008               	movf	(___fladd@a+3)^0,w,c
  3726   001226  0B80               	andlw	128
  3727   001228  6E0E               	movwf	___fladd@aexp^0,c
  3728   00122A  500D               	movf	___fladd@signs^0,w,c
  3729   00122C  180E               	xorwf	___fladd@aexp^0,w,c
  3730   00122E  B4D8               	btfsc	status,2,c
  3731   001230  EF1C  F009         	goto	u1711
  3732   001234  EF1E  F009         	goto	u1710
  3733   001238                     u1711:
  3734   001238  EF1F  F009         	goto	l1909
  3735   00123C                     u1710:
  3736   00123C  8C0D               	bsf	___fladd@signs^0,6,c
  3737   00123E                     l1909:
  3738   00123E  5008               	movf	(___fladd@a+3)^0,w,c
  3739   001240  2408               	addwf	(___fladd@a+3)^0,w,c
  3740   001242  6E0E               	movwf	___fladd@aexp^0,c
  3741   001244  AE07               	btfss	(___fladd@a+2)^0,7,c
  3742   001246  EF27  F009         	goto	u1721
  3743   00124A  EF29  F009         	goto	u1720
  3744   00124E                     u1721:
  3745   00124E  EF2A  F009         	goto	l1915
  3746   001252                     u1720:
  3747   001252  800E               	bsf	___fladd@aexp^0,0,c
  3748   001254                     l1915:
  3749   001254  500E               	movf	___fladd@aexp^0,w,c
  3750   001256  B4D8               	btfsc	status,2,c
  3751   001258  EF30  F009         	goto	u1731
  3752   00125C  EF32  F009         	goto	u1730
  3753   001260                     u1731:
  3754   001260  EF47  F009         	goto	l1925
  3755   001264                     u1730:
  3756   001264  280E               	incf	___fladd@aexp^0,w,c
  3757   001266  A4D8               	btfss	status,2,c
  3758   001268  EF38  F009         	goto	u1741
  3759   00126C  EF3A  F009         	goto	u1740
  3760   001270                     u1741:
  3761   001270  EF42  F009         	goto	l1921
  3762   001274                     u1740:
  3763   001274  0E00               	movlw	0
  3764   001276  6E05               	movwf	___fladd@a^0,c
  3765   001278  0E00               	movlw	0
  3766   00127A  6E06               	movwf	(___fladd@a+1)^0,c
  3767   00127C  0E00               	movlw	0
  3768   00127E  6E07               	movwf	(___fladd@a+2)^0,c
  3769   001280  0E00               	movlw	0
  3770   001282  6E08               	movwf	(___fladd@a+3)^0,c
  3771   001284                     l1921:
  3772   001284  8E07               	bsf	(___fladd@a+2)^0,7,c
  3773   001286  0E00               	movlw	0
  3774   001288  6E08               	movwf	(___fladd@a+3)^0,c
  3775   00128A  EF4F  F009         	goto	l1927
  3776   00128E                     l1925:
  3777   00128E  0E00               	movlw	0
  3778   001290  6E05               	movwf	___fladd@a^0,c
  3779   001292  0E00               	movlw	0
  3780   001294  6E06               	movwf	(___fladd@a+1)^0,c
  3781   001296  0E00               	movlw	0
  3782   001298  6E07               	movwf	(___fladd@a+2)^0,c
  3783   00129A  0E00               	movlw	0
  3784   00129C  6E08               	movwf	(___fladd@a+3)^0,c
  3785   00129E                     l1927:
  3786   00129E  500F               	movf	___fladd@bexp^0,w,c
  3787   0012A0  5C0E               	subwf	___fladd@aexp^0,w,c
  3788   0012A2  B0D8               	btfsc	status,0,c
  3789   0012A4  EF56  F009         	goto	u1751
  3790   0012A8  EF58  F009         	goto	u1750
  3791   0012AC                     u1751:
  3792   0012AC  EF7F  F009         	goto	l1963
  3793   0012B0                     u1750:
  3794   0012B0  AC0D               	btfss	___fladd@signs^0,6,c
  3795   0012B2  EF5D  F009         	goto	u1761
  3796   0012B6  EF5F  F009         	goto	u1760
  3797   0012BA                     u1761:
  3798   0012BA  EF61  F009         	goto	l1933
  3799   0012BE                     u1760:
  3800   0012BE  0E80               	movlw	128
  3801   0012C0  1A0D               	xorwf	___fladd@signs^0,f,c
  3802   0012C2                     l1933:
  3803   0012C2  C00F  F010         	movff	___fladd@bexp,___fladd@grs
  3804   0012C6  C00E  F00F         	movff	___fladd@aexp,___fladd@bexp
  3805   0012CA  C010  F00E         	movff	___fladd@grs,___fladd@aexp
  3806   0012CE  C001  F010         	movff	___fladd@b,___fladd@grs
  3807   0012D2  C005  F001         	movff	___fladd@a,___fladd@b
  3808   0012D6  C010  F005         	movff	___fladd@grs,___fladd@a
  3809   0012DA  C002  F010         	movff	___fladd@b+1,___fladd@grs
  3810   0012DE  C006  F002         	movff	___fladd@a+1,___fladd@b+1
  3811   0012E2  C010  F006         	movff	___fladd@grs,___fladd@a+1
  3812   0012E6  C003  F010         	movff	___fladd@b+2,___fladd@grs
  3813   0012EA  C007  F003         	movff	___fladd@a+2,___fladd@b+2
  3814   0012EE  C010  F007         	movff	___fladd@grs,___fladd@a+2
  3815   0012F2  C004  F010         	movff	___fladd@b+3,___fladd@grs
  3816   0012F6  C008  F004         	movff	___fladd@a+3,___fladd@b+3
  3817   0012FA  C010  F008         	movff	___fladd@grs,___fladd@a+3
  3818   0012FE                     l1963:
  3819   0012FE  0E00               	movlw	0
  3820   001300  6E10               	movwf	___fladd@grs^0,c
  3821   001302  500F               	movf	___fladd@bexp^0,w,c
  3822   001304  C00E  F009         	movff	___fladd@aexp,??___fladd
  3823   001308  6A0A               	clrf	(??___fladd+1)^0,c
  3824   00130A  5E09               	subwf	??___fladd^0,f,c
  3825   00130C  0E00               	movlw	0
  3826   00130E  5A0A               	subwfb	(??___fladd+1)^0,f,c
  3827   001310  BE0A               	btfsc	(??___fladd+1)^0,7,c
  3828   001312  EF94  F009         	goto	u1771
  3829   001316  500A               	movf	(??___fladd+1)^0,w,c
  3830   001318  E109               	bnz	u1770
  3831   00131A  0E1A               	movlw	26
  3832   00131C  5C09               	subwf	??___fladd^0,w,c
  3833   00131E  A0D8               	btfss	status,0,c
  3834   001320  EF94  F009         	goto	u1771
  3835   001324  EF96  F009         	goto	u1770
  3836   001328                     u1771:
  3837   001328  EFCD  F009         	goto	l551
  3838   00132C                     u1770:
  3839   00132C  5001               	movf	___fladd@b^0,w,c
  3840   00132E  1002               	iorwf	(___fladd@b+1)^0,w,c
  3841   001330  1003               	iorwf	(___fladd@b+2)^0,w,c
  3842   001332  1004               	iorwf	(___fladd@b+3)^0,w,c
  3843   001334  A4D8               	btfss	status,2,c
  3844   001336  EF9F  F009         	goto	u1781
  3845   00133A  EFA2  F009         	goto	u1780
  3846   00133E                     u1781:
  3847   00133E  0E01               	movlw	1
  3848   001340  EFA3  F009         	goto	u1790
  3849   001344                     u1780:
  3850   001344  0E00               	movlw	0
  3851   001346                     u1790:
  3852   001346  6E10               	movwf	___fladd@grs^0,c
  3853   001348  0E00               	movlw	0
  3854   00134A  6E01               	movwf	___fladd@b^0,c
  3855   00134C  0E00               	movlw	0
  3856   00134E  6E02               	movwf	(___fladd@b+1)^0,c
  3857   001350  0E00               	movlw	0
  3858   001352  6E03               	movwf	(___fladd@b+2)^0,c
  3859   001354  0E00               	movlw	0
  3860   001356  6E04               	movwf	(___fladd@b+3)^0,c
  3861   001358  C00E  F00F         	movff	___fladd@aexp,___fladd@bexp
  3862   00135C  EFD6  F009         	goto	l550
  3863   001360                     l552:
  3864   001360  A010               	btfss	___fladd@grs^0,0,c
  3865   001362  EFB5  F009         	goto	u1801
  3866   001366  EFB7  F009         	goto	u1800
  3867   00136A                     u1801:
  3868   00136A  EFBD  F009         	goto	l1975
  3869   00136E                     u1800:
  3870   00136E  90D8               	bcf	status,0,c
  3871   001370  3010               	rrcf	___fladd@grs^0,w,c
  3872   001372  0901               	iorlw	1
  3873   001374  6E10               	movwf	___fladd@grs^0,c
  3874   001376  EFBF  F009         	goto	l1977
  3875   00137A                     l1975:
  3876   00137A  90D8               	bcf	status,0,c
  3877   00137C  3210               	rrcf	___fladd@grs^0,f,c
  3878   00137E                     l1977:
  3879   00137E  A001               	btfss	___fladd@b^0,0,c
  3880   001380  EFC4  F009         	goto	u1811
  3881   001384  EFC6  F009         	goto	u1810
  3882   001388                     u1811:
  3883   001388  EFC7  F009         	goto	l1981
  3884   00138C                     u1810:
  3885   00138C  8E10               	bsf	___fladd@grs^0,7,c
  3886   00138E                     l1981:
  3887   00138E  3404               	rlcf	(___fladd@b+3)^0,w,c
  3888   001390  3204               	rrcf	(___fladd@b+3)^0,f,c
  3889   001392  3203               	rrcf	(___fladd@b+2)^0,f,c
  3890   001394  3202               	rrcf	(___fladd@b+1)^0,f,c
  3891   001396  3201               	rrcf	___fladd@b^0,f,c
  3892   001398  2A0F               	incf	___fladd@bexp^0,f,c
  3893   00139A                     l551:
  3894   00139A  500E               	movf	___fladd@aexp^0,w,c
  3895   00139C  5C0F               	subwf	___fladd@bexp^0,w,c
  3896   00139E  A0D8               	btfss	status,0,c
  3897   0013A0  EFD4  F009         	goto	u1821
  3898   0013A4  EFD6  F009         	goto	u1820
  3899   0013A8                     u1821:
  3900   0013A8  EFB0  F009         	goto	l552
  3901   0013AC                     u1820:
  3902   0013AC                     l550:
  3903   0013AC  BC0D               	btfsc	___fladd@signs^0,6,c
  3904   0013AE  EFDB  F009         	goto	u1831
  3905   0013B2  EFDD  F009         	goto	u1830
  3906   0013B6                     u1831:
  3907   0013B6  EF1D  F00A         	goto	l2009
  3908   0013BA                     u1830:
  3909   0013BA  500F               	movf	___fladd@bexp^0,w,c
  3910   0013BC  A4D8               	btfss	status,2,c
  3911   0013BE  EFE3  F009         	goto	u1841
  3912   0013C2  EFE5  F009         	goto	u1840
  3913   0013C6                     u1841:
  3914   0013C6  EFEF  F009         	goto	l1991
  3915   0013CA                     u1840:
  3916   0013CA  0E00               	movlw	0
  3917   0013CC  6E01               	movwf	?___fladd^0,c
  3918   0013CE  0E00               	movlw	0
  3919   0013D0  6E02               	movwf	(?___fladd+1)^0,c
  3920   0013D2  0E00               	movlw	0
  3921   0013D4  6E03               	movwf	(?___fladd+2)^0,c
  3922   0013D6  0E00               	movlw	0
  3923   0013D8  6E04               	movwf	(?___fladd+3)^0,c
  3924   0013DA  EF3E  F00B         	goto	l559
  3925   0013DE                     l1991:
  3926   0013DE  5005               	movf	___fladd@a^0,w,c
  3927   0013E0  2601               	addwf	___fladd@b^0,f,c
  3928   0013E2  5006               	movf	(___fladd@a+1)^0,w,c
  3929   0013E4  2202               	addwfc	(___fladd@b+1)^0,f,c
  3930   0013E6  5007               	movf	(___fladd@a+2)^0,w,c
  3931   0013E8  2203               	addwfc	(___fladd@b+2)^0,f,c
  3932   0013EA  5008               	movf	(___fladd@a+3)^0,w,c
  3933   0013EC  2204               	addwfc	(___fladd@b+3)^0,f,c
  3934   0013EE  A004               	btfss	(___fladd@b+3)^0,0,c
  3935   0013F0  EFFC  F009         	goto	u1851
  3936   0013F4  EFFE  F009         	goto	u1850
  3937   0013F8                     u1851:
  3938   0013F8  EFAA  F00A         	goto	l2045
  3939   0013FC                     u1850:
  3940   0013FC  A010               	btfss	___fladd@grs^0,0,c
  3941   0013FE  EF03  F00A         	goto	u1861
  3942   001402  EF05  F00A         	goto	u1860
  3943   001406                     u1861:
  3944   001406  EF0B  F00A         	goto	l1999
  3945   00140A                     u1860:
  3946   00140A  90D8               	bcf	status,0,c
  3947   00140C  3010               	rrcf	___fladd@grs^0,w,c
  3948   00140E  0901               	iorlw	1
  3949   001410  6E10               	movwf	___fladd@grs^0,c
  3950   001412  EF0D  F00A         	goto	l2001
  3951   001416                     l1999:
  3952   001416  90D8               	bcf	status,0,c
  3953   001418  3210               	rrcf	___fladd@grs^0,f,c
  3954   00141A                     l2001:
  3955   00141A  A001               	btfss	___fladd@b^0,0,c
  3956   00141C  EF12  F00A         	goto	u1871
  3957   001420  EF14  F00A         	goto	u1870
  3958   001424                     u1871:
  3959   001424  EF15  F00A         	goto	l2005
  3960   001428                     u1870:
  3961   001428  8E10               	bsf	___fladd@grs^0,7,c
  3962   00142A                     l2005:
  3963   00142A  3404               	rlcf	(___fladd@b+3)^0,w,c
  3964   00142C  3204               	rrcf	(___fladd@b+3)^0,f,c
  3965   00142E  3203               	rrcf	(___fladd@b+2)^0,f,c
  3966   001430  3202               	rrcf	(___fladd@b+1)^0,f,c
  3967   001432  3201               	rrcf	___fladd@b^0,f,c
  3968   001434  2A0F               	incf	___fladd@bexp^0,f,c
  3969   001436  EFAA  F00A         	goto	l2045
  3970   00143A                     l2009:
  3971   00143A  5005               	movf	___fladd@a^0,w,c
  3972   00143C  5C01               	subwf	___fladd@b^0,w,c
  3973   00143E  5006               	movf	(___fladd@a+1)^0,w,c
  3974   001440  5802               	subwfb	(___fladd@b+1)^0,w,c
  3975   001442  5007               	movf	(___fladd@a+2)^0,w,c
  3976   001444  5803               	subwfb	(___fladd@b+2)^0,w,c
  3977   001446  5004               	movf	(___fladd@b+3)^0,w,c
  3978   001448  0A80               	xorlw	128
  3979   00144A  6E09               	movwf	??___fladd^0,c
  3980   00144C  5008               	movf	(___fladd@a+3)^0,w,c
  3981   00144E  0A80               	xorlw	128
  3982   001450  5809               	subwfb	??___fladd^0,w,c
  3983   001452  B0D8               	btfsc	status,0,c
  3984   001454  EF2E  F00A         	goto	u1881
  3985   001458  EF30  F00A         	goto	u1880
  3986   00145C                     u1881:
  3987   00145C  EF5B  F00A         	goto	l2019
  3988   001460                     u1880:
  3989   001460  5001               	movf	___fladd@b^0,w,c
  3990   001462  5C05               	subwf	___fladd@a^0,w,c
  3991   001464  6E09               	movwf	??___fladd^0,c
  3992   001466  5002               	movf	(___fladd@b+1)^0,w,c
  3993   001468  5806               	subwfb	(___fladd@a+1)^0,w,c
  3994   00146A  6E0A               	movwf	(??___fladd+1)^0,c
  3995   00146C  5003               	movf	(___fladd@b+2)^0,w,c
  3996   00146E  5807               	subwfb	(___fladd@a+2)^0,w,c
  3997   001470  6E0B               	movwf	(??___fladd+2)^0,c
  3998   001472  5004               	movf	(___fladd@b+3)^0,w,c
  3999   001474  5808               	subwfb	(___fladd@a+3)^0,w,c
  4000   001476  6E0C               	movwf	(??___fladd+3)^0,c
  4001   001478  0EFF               	movlw	255
  4002   00147A  2409               	addwf	??___fladd^0,w,c
  4003   00147C  6E01               	movwf	___fladd@b^0,c
  4004   00147E  0EFF               	movlw	255
  4005   001480  200A               	addwfc	(??___fladd+1)^0,w,c
  4006   001482  6E02               	movwf	(___fladd@b+1)^0,c
  4007   001484  0EFF               	movlw	255
  4008   001486  200B               	addwfc	(??___fladd+2)^0,w,c
  4009   001488  6E03               	movwf	(___fladd@b+2)^0,c
  4010   00148A  0EFF               	movlw	255
  4011   00148C  200C               	addwfc	(??___fladd+3)^0,w,c
  4012   00148E  6E04               	movwf	(___fladd@b+3)^0,c
  4013   001490  0E80               	movlw	128
  4014   001492  1A0D               	xorwf	___fladd@signs^0,f,c
  4015   001494  6C10               	negf	___fladd@grs^0,c
  4016   001496  5010               	movf	___fladd@grs^0,w,c
  4017   001498  A4D8               	btfss	status,2,c
  4018   00149A  EF51  F00A         	goto	u1891
  4019   00149E  EF53  F00A         	goto	u1890
  4020   0014A2                     u1891:
  4021   0014A2  EF63  F00A         	goto	l567
  4022   0014A6                     u1890:
  4023   0014A6  0E01               	movlw	1
  4024   0014A8  2601               	addwf	___fladd@b^0,f,c
  4025   0014AA  0E00               	movlw	0
  4026   0014AC  2202               	addwfc	(___fladd@b+1)^0,f,c
  4027   0014AE  2203               	addwfc	(___fladd@b+2)^0,f,c
  4028   0014B0  2204               	addwfc	(___fladd@b+3)^0,f,c
  4029   0014B2  EF63  F00A         	goto	l567
  4030   0014B6                     l2019:
  4031   0014B6  5005               	movf	___fladd@a^0,w,c
  4032   0014B8  5E01               	subwf	___fladd@b^0,f,c
  4033   0014BA  5006               	movf	(___fladd@a+1)^0,w,c
  4034   0014BC  5A02               	subwfb	(___fladd@b+1)^0,f,c
  4035   0014BE  5007               	movf	(___fladd@a+2)^0,w,c
  4036   0014C0  5A03               	subwfb	(___fladd@b+2)^0,f,c
  4037   0014C2  5008               	movf	(___fladd@a+3)^0,w,c
  4038   0014C4  5A04               	subwfb	(___fladd@b+3)^0,f,c
  4039   0014C6                     l567:
  4040   0014C6  5001               	movf	___fladd@b^0,w,c
  4041   0014C8  1002               	iorwf	(___fladd@b+1)^0,w,c
  4042   0014CA  1003               	iorwf	(___fladd@b+2)^0,w,c
  4043   0014CC  1004               	iorwf	(___fladd@b+3)^0,w,c
  4044   0014CE  A4D8               	btfss	status,2,c
  4045   0014D0  EF6C  F00A         	goto	u1901
  4046   0014D4  EF6E  F00A         	goto	u1900
  4047   0014D8                     u1901:
  4048   0014D8  EFA3  F00A         	goto	l2043
  4049   0014DC                     u1900:
  4050   0014DC  5010               	movf	___fladd@grs^0,w,c
  4051   0014DE  A4D8               	btfss	status,2,c
  4052   0014E0  EF74  F00A         	goto	u1911
  4053   0014E4  EF76  F00A         	goto	u1910
  4054   0014E8                     u1911:
  4055   0014E8  EFA3  F00A         	goto	l2043
  4056   0014EC                     u1910:
  4057   0014EC  0E00               	movlw	0
  4058   0014EE  6E01               	movwf	?___fladd^0,c
  4059   0014F0  0E00               	movlw	0
  4060   0014F2  6E02               	movwf	(?___fladd+1)^0,c
  4061   0014F4  0E00               	movlw	0
  4062   0014F6  6E03               	movwf	(?___fladd+2)^0,c
  4063   0014F8  0E00               	movlw	0
  4064   0014FA  6E04               	movwf	(?___fladd+3)^0,c
  4065   0014FC  EF3E  F00B         	goto	l559
  4066   001500                     l2027:
  4067   001500  90D8               	bcf	status,0,c
  4068   001502  3601               	rlcf	___fladd@b^0,f,c
  4069   001504  3602               	rlcf	(___fladd@b+1)^0,f,c
  4070   001506  3603               	rlcf	(___fladd@b+2)^0,f,c
  4071   001508  3604               	rlcf	(___fladd@b+3)^0,f,c
  4072   00150A  AE10               	btfss	___fladd@grs^0,7,c
  4073   00150C  EF8A  F00A         	goto	u1921
  4074   001510  EF8C  F00A         	goto	u1920
  4075   001514                     u1921:
  4076   001514  EF8D  F00A         	goto	l2033
  4077   001518                     u1920:
  4078   001518  8001               	bsf	___fladd@b^0,0,c
  4079   00151A                     l2033:
  4080   00151A  A010               	btfss	___fladd@grs^0,0,c
  4081   00151C  EF92  F00A         	goto	u1931
  4082   001520  EF94  F00A         	goto	u1930
  4083   001524                     u1931:
  4084   001524  EF98  F00A         	goto	l2037
  4085   001528                     u1930:
  4086   001528  80D8               	bsf	status,0,c
  4087   00152A  3610               	rlcf	___fladd@grs^0,f,c
  4088   00152C  EF9A  F00A         	goto	l2039
  4089   001530                     l2037:
  4090   001530  90D8               	bcf	status,0,c
  4091   001532  3610               	rlcf	___fladd@grs^0,f,c
  4092   001534                     l2039:
  4093   001534  500F               	movf	___fladd@bexp^0,w,c
  4094   001536  B4D8               	btfsc	status,2,c
  4095   001538  EFA0  F00A         	goto	u1941
  4096   00153C  EFA2  F00A         	goto	u1940
  4097   001540                     u1941:
  4098   001540  EFA3  F00A         	goto	l2043
  4099   001544                     u1940:
  4100   001544  060F               	decf	___fladd@bexp^0,f,c
  4101   001546                     l2043:
  4102   001546  AE03               	btfss	(___fladd@b+2)^0,7,c
  4103   001548  EFA8  F00A         	goto	u1951
  4104   00154C  EFAA  F00A         	goto	u1950
  4105   001550                     u1951:
  4106   001550  EF80  F00A         	goto	l2027
  4107   001554                     u1950:
  4108   001554                     l2045:
  4109   001554  0E00               	movlw	0
  4110   001556  6E0E               	movwf	___fladd@aexp^0,c
  4111   001558  AE10               	btfss	___fladd@grs^0,7,c
  4112   00155A  EFB1  F00A         	goto	u1961
  4113   00155E  EFB3  F00A         	goto	u1960
  4114   001562                     u1961:
  4115   001562  EFCB  F00A         	goto	l576
  4116   001566                     u1960:
  4117   001566  C010  F009         	movff	___fladd@grs,??___fladd
  4118   00156A  0E7F               	movlw	127
  4119   00156C  1609               	andwf	??___fladd^0,f,c
  4120   00156E  B4D8               	btfsc	status,2,c
  4121   001570  EFBC  F00A         	goto	u1971
  4122   001574  EFBE  F00A         	goto	u1970
  4123   001578                     u1971:
  4124   001578  EFC2  F00A         	goto	l577
  4125   00157C                     u1970:
  4126   00157C                     l2051:
  4127   00157C  0E01               	movlw	1
  4128   00157E  6E0E               	movwf	___fladd@aexp^0,c
  4129   001580  EFCB  F00A         	goto	l576
  4130   001584                     l577:
  4131   001584  A001               	btfss	___fladd@b^0,0,c
  4132   001586  EFC7  F00A         	goto	u1981
  4133   00158A  EFC9  F00A         	goto	u1980
  4134   00158E                     u1981:
  4135   00158E  EFCB  F00A         	goto	l576
  4136   001592                     u1980:
  4137   001592  EFBE  F00A         	goto	l2051
  4138   001596                     l576:
  4139   001596  500E               	movf	___fladd@aexp^0,w,c
  4140   001598  B4D8               	btfsc	status,2,c
  4141   00159A  EFD1  F00A         	goto	u1991
  4142   00159E  EFD3  F00A         	goto	u1990
  4143   0015A2                     u1991:
  4144   0015A2  EFFE  F00A         	goto	l2063
  4145   0015A6                     u1990:
  4146   0015A6  0E01               	movlw	1
  4147   0015A8  2601               	addwf	___fladd@b^0,f,c
  4148   0015AA  0E00               	movlw	0
  4149   0015AC  2202               	addwfc	(___fladd@b+1)^0,f,c
  4150   0015AE  2203               	addwfc	(___fladd@b+2)^0,f,c
  4151   0015B0  2204               	addwfc	(___fladd@b+3)^0,f,c
  4152   0015B2  A004               	btfss	(___fladd@b+3)^0,0,c
  4153   0015B4  EFDE  F00A         	goto	u2001
  4154   0015B8  EFE0  F00A         	goto	u2000
  4155   0015BC                     u2001:
  4156   0015BC  EFFE  F00A         	goto	l2063
  4157   0015C0                     u2000:
  4158   0015C0  C001  F009         	movff	___fladd@b,??___fladd
  4159   0015C4  C002  F00A         	movff	___fladd@b+1,??___fladd+1
  4160   0015C8  C003  F00B         	movff	___fladd@b+2,??___fladd+2
  4161   0015CC  C004  F00C         	movff	___fladd@b+3,??___fladd+3
  4162   0015D0  340C               	rlcf	(??___fladd+3)^0,w,c
  4163   0015D2  320C               	rrcf	(??___fladd+3)^0,f,c
  4164   0015D4  320B               	rrcf	(??___fladd+2)^0,f,c
  4165   0015D6  320A               	rrcf	(??___fladd+1)^0,f,c
  4166   0015D8  3209               	rrcf	??___fladd^0,f,c
  4167   0015DA  C009  F001         	movff	??___fladd,___fladd@b
  4168   0015DE  C00A  F002         	movff	??___fladd+1,___fladd@b+1
  4169   0015E2  C00B  F003         	movff	??___fladd+2,___fladd@b+2
  4170   0015E6  C00C  F004         	movff	??___fladd+3,___fladd@b+3
  4171   0015EA  280F               	incf	___fladd@bexp^0,w,c
  4172   0015EC  B4D8               	btfsc	status,2,c
  4173   0015EE  EFFB  F00A         	goto	u2011
  4174   0015F2  EFFD  F00A         	goto	u2010
  4175   0015F6                     u2011:
  4176   0015F6  EFFE  F00A         	goto	l2063
  4177   0015FA                     u2010:
  4178   0015FA  2A0F               	incf	___fladd@bexp^0,f,c
  4179   0015FC                     l2063:
  4180   0015FC  280F               	incf	___fladd@bexp^0,w,c
  4181   0015FE  B4D8               	btfsc	status,2,c
  4182   001600  EF04  F00B         	goto	u2021
  4183   001604  EF06  F00B         	goto	u2020
  4184   001608                     u2021:
  4185   001608  EF0E  F00B         	goto	l2067
  4186   00160C                     u2020:
  4187   00160C  500F               	movf	___fladd@bexp^0,w,c
  4188   00160E  A4D8               	btfss	status,2,c
  4189   001610  EF0C  F00B         	goto	u2031
  4190   001614  EF0E  F00B         	goto	u2030
  4191   001618                     u2031:
  4192   001618  EF20  F00B         	goto	l2071
  4193   00161C                     u2030:
  4194   00161C                     l2067:
  4195   00161C  0E00               	movlw	0
  4196   00161E  6E01               	movwf	___fladd@b^0,c
  4197   001620  0E00               	movlw	0
  4198   001622  6E02               	movwf	(___fladd@b+1)^0,c
  4199   001624  0E00               	movlw	0
  4200   001626  6E03               	movwf	(___fladd@b+2)^0,c
  4201   001628  0E00               	movlw	0
  4202   00162A  6E04               	movwf	(___fladd@b+3)^0,c
  4203   00162C  500F               	movf	___fladd@bexp^0,w,c
  4204   00162E  A4D8               	btfss	status,2,c
  4205   001630  EF1C  F00B         	goto	u2041
  4206   001634  EF1E  F00B         	goto	u2040
  4207   001638                     u2041:
  4208   001638  EF20  F00B         	goto	l2071
  4209   00163C                     u2040:
  4210   00163C  0E00               	movlw	0
  4211   00163E  6E0D               	movwf	___fladd@signs^0,c
  4212   001640                     l2071:
  4213   001640  A00F               	btfss	___fladd@bexp^0,0,c
  4214   001642  EF25  F00B         	goto	u2051
  4215   001646  EF27  F00B         	goto	u2050
  4216   00164A                     u2051:
  4217   00164A  EF2A  F00B         	goto	l2075
  4218   00164E                     u2050:
  4219   00164E  8E03               	bsf	(___fladd@b+2)^0,7,c
  4220   001650  EF2B  F00B         	goto	l2077
  4221   001654                     l2075:
  4222   001654  9E03               	bcf	(___fladd@b+2)^0,7,c
  4223   001656                     l2077:
  4224   001656  90D8               	bcf	status,0,c
  4225   001658  300F               	rrcf	___fladd@bexp^0,w,c
  4226   00165A  6E04               	movwf	(___fladd@b+3)^0,c
  4227   00165C  AE0D               	btfss	___fladd@signs^0,7,c
  4228   00165E  EF33  F00B         	goto	u2061
  4229   001662  EF35  F00B         	goto	u2060
  4230   001666                     u2061:
  4231   001666  EF36  F00B         	goto	l2083
  4232   00166A                     u2060:
  4233   00166A  8E04               	bsf	(___fladd@b+3)^0,7,c
  4234   00166C                     l2083:
  4235   00166C  C001  F001         	movff	___fladd@b,?___fladd
  4236   001670  C002  F002         	movff	___fladd@b+1,?___fladd+1
  4237   001674  C003  F003         	movff	___fladd@b+2,?___fladd+2
  4238   001678  C004  F004         	movff	___fladd@b+3,?___fladd+3
  4239   00167C                     l559:
  4240   00167C  0012               	return		;funcret
  4241   00167E                     __end_of___fladd:
  4242                           	callstack 0
  4243                           
  4244 ;; *************** function ___flneg *****************
  4245 ;; Defined at:
  4246 ;;		line 15 in file "C:\Program Files\Microchip\xc8\v2.46\pic\sources\c99\common\flneg.c"
  4247 ;; Parameters:    Size  Location     Type
  4248 ;;  f1              4    0[COMRAM] unsigned char 
  4249 ;; Auto vars:     Size  Location     Type
  4250 ;;		None
  4251 ;; Return value:  Size  Location     Type
  4252 ;;                  4    0[COMRAM] unsigned char 
  4253 ;; Registers used:
  4254 ;;		wreg, status,2, status,0
  4255 ;; Tracked objects:
  4256 ;;		On entry : 0/0
  4257 ;;		On exit  : 0/0
  4258 ;;		Unchanged: 0/0
  4259 ;; Data sizes:     COMRAM   BANK0   BANK1   BANK2   BANK3   BANK4   BANK5   BANK6   BANK7
  4260 ;;      Params:         4       0       0       0       0       0       0       0       0
  4261 ;;      Locals:         0       0       0       0       0       0       0       0       0
  4262 ;;      Temps:          0       0       0       0       0       0       0       0       0
  4263 ;;      Totals:         4       0       0       0       0       0       0       0       0
  4264 ;;Total ram usage:        4 bytes
  4265 ;; Hardware stack levels used: 1
  4266 ;; This function calls:
  4267 ;;		Nothing
  4268 ;; This function is called by:
  4269 ;;		_efgtoa
  4270 ;; This function uses a non-reentrant model
  4271 ;;
  4272                           
  4273                           	psect	text17
  4274   002932                     __ptext17:
  4275                           	callstack 0
  4276   002932                     ___flneg:
  4277                           	callstack 26
  4278   002932  5001               	movf	___flneg@f1^0,w,c
  4279   002934  1002               	iorwf	(___flneg@f1+1)^0,w,c
  4280   002936  1003               	iorwf	(___flneg@f1+2)^0,w,c
  4281   002938  1004               	iorwf	(___flneg@f1+3)^0,w,c
  4282   00293A  B4D8               	btfsc	status,2,c
  4283   00293C  EFA2  F014         	goto	u2581
  4284   002940  EFA4  F014         	goto	u2580
  4285   002944                     u2581:
  4286   002944  EFAC  F014         	goto	l2411
  4287   002948                     u2580:
  4288   002948  0E00               	movlw	0
  4289   00294A  1A01               	xorwf	___flneg@f1^0,f,c
  4290   00294C  0E00               	movlw	0
  4291   00294E  1A02               	xorwf	(___flneg@f1+1)^0,f,c
  4292   002950  0E00               	movlw	0
  4293   002952  1A03               	xorwf	(___flneg@f1+2)^0,f,c
  4294   002954  0E80               	movlw	128
  4295   002956  1A04               	xorwf	(___flneg@f1+3)^0,f,c
  4296   002958                     l2411:
  4297   002958  C001  F001         	movff	___flneg@f1,?___flneg
  4298   00295C  C002  F002         	movff	___flneg@f1+1,?___flneg+1
  4299   002960  C003  F003         	movff	___flneg@f1+2,?___flneg+2
  4300   002964  C004  F004         	movff	___flneg@f1+3,?___flneg+3
  4301   002968  0012               	return		;funcret
  4302   00296A                     __end_of___flneg:
  4303                           	callstack 0
  4304                           
  4305 ;; *************** function ___flmul *****************
  4306 ;; Defined at:
  4307 ;;		line 8 in file "C:\Program Files\Microchip\xc8\v2.46\pic\sources\c99\common\sprcmul.c"
  4308 ;; Parameters:    Size  Location     Type
  4309 ;;  b               4    0[COMRAM] unsigned char 
  4310 ;;  a               4    4[COMRAM] unsigned char 
  4311 ;; Auto vars:     Size  Location     Type
  4312 ;;  prod            4   19[COMRAM] struct .
  4313 ;;  grs             4   13[COMRAM] unsigned long 
  4314 ;;  temp            2   23[COMRAM] struct .
  4315 ;;  bexp            1   18[COMRAM] unsigned char 
  4316 ;;  aexp            1   17[COMRAM] unsigned char 
  4317 ;;  sign            1   12[COMRAM] unsigned char 
  4318 ;; Return value:  Size  Location     Type
  4319 ;;                  4    0[COMRAM] unsigned char 
  4320 ;; Registers used:
  4321 ;;		wreg, status,2, status,0, prodl, prodh
  4322 ;; Tracked objects:
  4323 ;;		On entry : 0/0
  4324 ;;		On exit  : 0/0
  4325 ;;		Unchanged: 0/0
  4326 ;; Data sizes:     COMRAM   BANK0   BANK1   BANK2   BANK3   BANK4   BANK5   BANK6   BANK7
  4327 ;;      Params:         8       0       0       0       0       0       0       0       0
  4328 ;;      Locals:        13       0       0       0       0       0       0       0       0
  4329 ;;      Temps:          4       0       0       0       0       0       0       0       0
  4330 ;;      Totals:        25       0       0       0       0       0       0       0       0
  4331 ;;Total ram usage:       25 bytes
  4332 ;; Hardware stack levels used: 1
  4333 ;; This function calls:
  4334 ;;		Nothing
  4335 ;; This function is called by:
  4336 ;;		_efgtoa
  4337 ;; This function uses a non-reentrant model
  4338 ;;
  4339                           
  4340                           	psect	text18
  4341   00167E                     __ptext18:
  4342                           	callstack 0
  4343   00167E                     ___flmul:
  4344                           	callstack 26
  4345   00167E  5004               	movf	(___flmul@b+3)^0,w,c
  4346   001680  0B80               	andlw	128
  4347   001682  6E0D               	movwf	___flmul@sign^0,c
  4348   001684  5004               	movf	(___flmul@b+3)^0,w,c
  4349   001686  2404               	addwf	(___flmul@b+3)^0,w,c
  4350   001688  6E13               	movwf	___flmul@bexp^0,c
  4351   00168A  AE03               	btfss	(___flmul@b+2)^0,7,c
  4352   00168C  EF4A  F00B         	goto	u2311
  4353   001690  EF4C  F00B         	goto	u2310
  4354   001694                     u2311:
  4355   001694  EF4D  F00B         	goto	l2239
  4356   001698                     u2310:
  4357   001698  8013               	bsf	___flmul@bexp^0,0,c
  4358   00169A                     l2239:
  4359   00169A  5013               	movf	___flmul@bexp^0,w,c
  4360   00169C  B4D8               	btfsc	status,2,c
  4361   00169E  EF53  F00B         	goto	u2321
  4362   0016A2  EF55  F00B         	goto	u2320
  4363   0016A6                     u2321:
  4364   0016A6  EF68  F00B         	goto	l2247
  4365   0016AA                     u2320:
  4366   0016AA  2813               	incf	___flmul@bexp^0,w,c
  4367   0016AC  A4D8               	btfss	status,2,c
  4368   0016AE  EF5B  F00B         	goto	u2331
  4369   0016B2  EF5D  F00B         	goto	u2330
  4370   0016B6                     u2331:
  4371   0016B6  EF65  F00B         	goto	l2245
  4372   0016BA                     u2330:
  4373   0016BA  0E00               	movlw	0
  4374   0016BC  6E01               	movwf	___flmul@b^0,c
  4375   0016BE  0E00               	movlw	0
  4376   0016C0  6E02               	movwf	(___flmul@b+1)^0,c
  4377   0016C2  0E00               	movlw	0
  4378   0016C4  6E03               	movwf	(___flmul@b+2)^0,c
  4379   0016C6  0E00               	movlw	0
  4380   0016C8  6E04               	movwf	(___flmul@b+3)^0,c
  4381   0016CA                     l2245:
  4382   0016CA  8E03               	bsf	(___flmul@b+2)^0,7,c
  4383   0016CC  EF70  F00B         	goto	l2249
  4384   0016D0                     l2247:
  4385   0016D0  0E00               	movlw	0
  4386   0016D2  6E01               	movwf	___flmul@b^0,c
  4387   0016D4  0E00               	movlw	0
  4388   0016D6  6E02               	movwf	(___flmul@b+1)^0,c
  4389   0016D8  0E00               	movlw	0
  4390   0016DA  6E03               	movwf	(___flmul@b+2)^0,c
  4391   0016DC  0E00               	movlw	0
  4392   0016DE  6E04               	movwf	(___flmul@b+3)^0,c
  4393   0016E0                     l2249:
  4394   0016E0  5008               	movf	(___flmul@a+3)^0,w,c
  4395   0016E2  0B80               	andlw	128
  4396   0016E4  1A0D               	xorwf	___flmul@sign^0,f,c
  4397   0016E6  5008               	movf	(___flmul@a+3)^0,w,c
  4398   0016E8  2408               	addwf	(___flmul@a+3)^0,w,c
  4399   0016EA  6E12               	movwf	___flmul@aexp^0,c
  4400   0016EC  AE07               	btfss	(___flmul@a+2)^0,7,c
  4401   0016EE  EF7B  F00B         	goto	u2341
  4402   0016F2  EF7D  F00B         	goto	u2340
  4403   0016F6                     u2341:
  4404   0016F6  EF7E  F00B         	goto	l2257
  4405   0016FA                     u2340:
  4406   0016FA  8012               	bsf	___flmul@aexp^0,0,c
  4407   0016FC                     l2257:
  4408   0016FC  5012               	movf	___flmul@aexp^0,w,c
  4409   0016FE  B4D8               	btfsc	status,2,c
  4410   001700  EF84  F00B         	goto	u2351
  4411   001704  EF86  F00B         	goto	u2350
  4412   001708                     u2351:
  4413   001708  EF99  F00B         	goto	l2265
  4414   00170C                     u2350:
  4415   00170C  2812               	incf	___flmul@aexp^0,w,c
  4416   00170E  A4D8               	btfss	status,2,c
  4417   001710  EF8C  F00B         	goto	u2361
  4418   001714  EF8E  F00B         	goto	u2360
  4419   001718                     u2361:
  4420   001718  EF96  F00B         	goto	l2263
  4421   00171C                     u2360:
  4422   00171C  0E00               	movlw	0
  4423   00171E  6E05               	movwf	___flmul@a^0,c
  4424   001720  0E00               	movlw	0
  4425   001722  6E06               	movwf	(___flmul@a+1)^0,c
  4426   001724  0E00               	movlw	0
  4427   001726  6E07               	movwf	(___flmul@a+2)^0,c
  4428   001728  0E00               	movlw	0
  4429   00172A  6E08               	movwf	(___flmul@a+3)^0,c
  4430   00172C                     l2263:
  4431   00172C  8E07               	bsf	(___flmul@a+2)^0,7,c
  4432   00172E  EFA1  F00B         	goto	l636
  4433   001732                     l2265:
  4434   001732  0E00               	movlw	0
  4435   001734  6E05               	movwf	___flmul@a^0,c
  4436   001736  0E00               	movlw	0
  4437   001738  6E06               	movwf	(___flmul@a+1)^0,c
  4438   00173A  0E00               	movlw	0
  4439   00173C  6E07               	movwf	(___flmul@a+2)^0,c
  4440   00173E  0E00               	movlw	0
  4441   001740  6E08               	movwf	(___flmul@a+3)^0,c
  4442   001742                     l636:
  4443   001742  5012               	movf	___flmul@aexp^0,w,c
  4444   001744  B4D8               	btfsc	status,2,c
  4445   001746  EFA7  F00B         	goto	u2371
  4446   00174A  EFA9  F00B         	goto	u2370
  4447   00174E                     u2371:
  4448   00174E  EFB1  F00B         	goto	l2269
  4449   001752                     u2370:
  4450   001752  5013               	movf	___flmul@bexp^0,w,c
  4451   001754  A4D8               	btfss	status,2,c
  4452   001756  EFAF  F00B         	goto	u2381
  4453   00175A  EFB1  F00B         	goto	u2380
  4454   00175E                     u2381:
  4455   00175E  EFBB  F00B         	goto	l2273
  4456   001762                     u2380:
  4457   001762                     l2269:
  4458   001762  0E00               	movlw	0
  4459   001764  6E01               	movwf	?___flmul^0,c
  4460   001766  0E00               	movlw	0
  4461   001768  6E02               	movwf	(?___flmul+1)^0,c
  4462   00176A  0E00               	movlw	0
  4463   00176C  6E03               	movwf	(?___flmul+2)^0,c
  4464   00176E  0E00               	movlw	0
  4465   001770  6E04               	movwf	(?___flmul+3)^0,c
  4466   001772  EF53  F00D         	goto	l640
  4467   001776                     l2273:
  4468   001776  5007               	movf	(___flmul@a+2)^0,w,c
  4469   001778  0201               	mulwf	___flmul@b^0,c
  4470   00177A  CFF3 F018          	movff	prodl,___flmul@temp
  4471   00177E  CFF4 F019          	movff	prodh,___flmul@temp+1
  4472   001782  5018               	movf	___flmul@temp^0,w,c
  4473   001784  6E0E               	movwf	___flmul@grs^0,c
  4474   001786  6A0F               	clrf	(___flmul@grs+1)^0,c
  4475   001788  6A10               	clrf	(___flmul@grs+2)^0,c
  4476   00178A  6A11               	clrf	(___flmul@grs+3)^0,c
  4477   00178C  5019               	movf	(___flmul@temp+1)^0,w,c
  4478   00178E  6E14               	movwf	___flmul@prod^0,c
  4479   001790  6A15               	clrf	(___flmul@prod+1)^0,c
  4480   001792  6A16               	clrf	(___flmul@prod+2)^0,c
  4481   001794  6A17               	clrf	(___flmul@prod+3)^0,c
  4482   001796  5006               	movf	(___flmul@a+1)^0,w,c
  4483   001798  0202               	mulwf	(___flmul@b+1)^0,c
  4484   00179A  CFF3 F018          	movff	prodl,___flmul@temp
  4485   00179E  CFF4 F019          	movff	prodh,___flmul@temp+1
  4486   0017A2  5018               	movf	___flmul@temp^0,w,c
  4487   0017A4  260E               	addwf	___flmul@grs^0,f,c
  4488   0017A6  0E00               	movlw	0
  4489   0017A8  220F               	addwfc	(___flmul@grs+1)^0,f,c
  4490   0017AA  2210               	addwfc	(___flmul@grs+2)^0,f,c
  4491   0017AC  2211               	addwfc	(___flmul@grs+3)^0,f,c
  4492   0017AE  5019               	movf	(___flmul@temp+1)^0,w,c
  4493   0017B0  2614               	addwf	___flmul@prod^0,f,c
  4494   0017B2  0E00               	movlw	0
  4495   0017B4  2215               	addwfc	(___flmul@prod+1)^0,f,c
  4496   0017B6  2216               	addwfc	(___flmul@prod+2)^0,f,c
  4497   0017B8  2217               	addwfc	(___flmul@prod+3)^0,f,c
  4498   0017BA  5005               	movf	___flmul@a^0,w,c
  4499   0017BC  0203               	mulwf	(___flmul@b+2)^0,c
  4500   0017BE  CFF3 F018          	movff	prodl,___flmul@temp
  4501   0017C2  CFF4 F019          	movff	prodh,___flmul@temp+1
  4502   0017C6  5018               	movf	___flmul@temp^0,w,c
  4503   0017C8  260E               	addwf	___flmul@grs^0,f,c
  4504   0017CA  0E00               	movlw	0
  4505   0017CC  220F               	addwfc	(___flmul@grs+1)^0,f,c
  4506   0017CE  2210               	addwfc	(___flmul@grs+2)^0,f,c
  4507   0017D0  2211               	addwfc	(___flmul@grs+3)^0,f,c
  4508   0017D2  5019               	movf	(___flmul@temp+1)^0,w,c
  4509   0017D4  2614               	addwf	___flmul@prod^0,f,c
  4510   0017D6  0E00               	movlw	0
  4511   0017D8  2215               	addwfc	(___flmul@prod+1)^0,f,c
  4512   0017DA  2216               	addwfc	(___flmul@prod+2)^0,f,c
  4513   0017DC  2217               	addwfc	(___flmul@prod+3)^0,f,c
  4514   0017DE  C010  F011         	movff	___flmul@grs+2,___flmul@grs+3
  4515   0017E2  C00F  F010         	movff	___flmul@grs+1,___flmul@grs+2
  4516   0017E6  C00E  F00F         	movff	___flmul@grs,___flmul@grs+1
  4517   0017EA  6A0E               	clrf	___flmul@grs^0,c
  4518   0017EC  5005               	movf	___flmul@a^0,w,c
  4519   0017EE  0202               	mulwf	(___flmul@b+1)^0,c
  4520   0017F0  CFF3 F018          	movff	prodl,___flmul@temp
  4521   0017F4  CFF4 F019          	movff	prodh,___flmul@temp+1
  4522   0017F8  5018               	movf	___flmul@temp^0,w,c
  4523   0017FA  260E               	addwf	___flmul@grs^0,f,c
  4524   0017FC  5019               	movf	(___flmul@temp+1)^0,w,c
  4525   0017FE  220F               	addwfc	(___flmul@grs+1)^0,f,c
  4526   001800  0E00               	movlw	0
  4527   001802  2210               	addwfc	(___flmul@grs+2)^0,f,c
  4528   001804  0E00               	movlw	0
  4529   001806  2211               	addwfc	(___flmul@grs+3)^0,f,c
  4530   001808  5006               	movf	(___flmul@a+1)^0,w,c
  4531   00180A  0201               	mulwf	___flmul@b^0,c
  4532   00180C  CFF3 F018          	movff	prodl,___flmul@temp
  4533   001810  CFF4 F019          	movff	prodh,___flmul@temp+1
  4534   001814  5018               	movf	___flmul@temp^0,w,c
  4535   001816  260E               	addwf	___flmul@grs^0,f,c
  4536   001818  5019               	movf	(___flmul@temp+1)^0,w,c
  4537   00181A  220F               	addwfc	(___flmul@grs+1)^0,f,c
  4538   00181C  0E00               	movlw	0
  4539   00181E  2210               	addwfc	(___flmul@grs+2)^0,f,c
  4540   001820  0E00               	movlw	0
  4541   001822  2211               	addwfc	(___flmul@grs+3)^0,f,c
  4542   001824  C010  F011         	movff	___flmul@grs+2,___flmul@grs+3
  4543   001828  C00F  F010         	movff	___flmul@grs+1,___flmul@grs+2
  4544   00182C  C00E  F00F         	movff	___flmul@grs,___flmul@grs+1
  4545   001830  6A0E               	clrf	___flmul@grs^0,c
  4546   001832  5005               	movf	___flmul@a^0,w,c
  4547   001834  0201               	mulwf	___flmul@b^0,c
  4548   001836  CFF3 F018          	movff	prodl,___flmul@temp
  4549   00183A  CFF4 F019          	movff	prodh,___flmul@temp+1
  4550   00183E  5018               	movf	___flmul@temp^0,w,c
  4551   001840  260E               	addwf	___flmul@grs^0,f,c
  4552   001842  5019               	movf	(___flmul@temp+1)^0,w,c
  4553   001844  220F               	addwfc	(___flmul@grs+1)^0,f,c
  4554   001846  0E00               	movlw	0
  4555   001848  2210               	addwfc	(___flmul@grs+2)^0,f,c
  4556   00184A  0E00               	movlw	0
  4557   00184C  2211               	addwfc	(___flmul@grs+3)^0,f,c
  4558   00184E  5007               	movf	(___flmul@a+2)^0,w,c
  4559   001850  0202               	mulwf	(___flmul@b+1)^0,c
  4560   001852  CFF3 F018          	movff	prodl,___flmul@temp
  4561   001856  CFF4 F019          	movff	prodh,___flmul@temp+1
  4562   00185A  5018               	movf	___flmul@temp^0,w,c
  4563   00185C  2614               	addwf	___flmul@prod^0,f,c
  4564   00185E  5019               	movf	(___flmul@temp+1)^0,w,c
  4565   001860  2215               	addwfc	(___flmul@prod+1)^0,f,c
  4566   001862  0E00               	movlw	0
  4567   001864  2216               	addwfc	(___flmul@prod+2)^0,f,c
  4568   001866  0E00               	movlw	0
  4569   001868  2217               	addwfc	(___flmul@prod+3)^0,f,c
  4570   00186A  5006               	movf	(___flmul@a+1)^0,w,c
  4571   00186C  0203               	mulwf	(___flmul@b+2)^0,c
  4572   00186E  CFF3 F018          	movff	prodl,___flmul@temp
  4573   001872  CFF4 F019          	movff	prodh,___flmul@temp+1
  4574   001876  5018               	movf	___flmul@temp^0,w,c
  4575   001878  2614               	addwf	___flmul@prod^0,f,c
  4576   00187A  5019               	movf	(___flmul@temp+1)^0,w,c
  4577   00187C  2215               	addwfc	(___flmul@prod+1)^0,f,c
  4578   00187E  0E00               	movlw	0
  4579   001880  2216               	addwfc	(___flmul@prod+2)^0,f,c
  4580   001882  0E00               	movlw	0
  4581   001884  2217               	addwfc	(___flmul@prod+3)^0,f,c
  4582   001886  5007               	movf	(___flmul@a+2)^0,w,c
  4583   001888  0203               	mulwf	(___flmul@b+2)^0,c
  4584   00188A  CFF3 F018          	movff	prodl,___flmul@temp
  4585   00188E  CFF4 F019          	movff	prodh,___flmul@temp+1
  4586   001892  5018               	movf	___flmul@temp^0,w,c
  4587   001894  6E09               	movwf	??___flmul^0,c
  4588   001896  5019               	movf	(___flmul@temp+1)^0,w,c
  4589   001898  6E0A               	movwf	(??___flmul+1)^0,c
  4590   00189A  6A0B               	clrf	(??___flmul+2)^0,c
  4591   00189C  6A0C               	clrf	(??___flmul+3)^0,c
  4592   00189E  C00B  F00C         	movff	??___flmul+2,??___flmul+3
  4593   0018A2  C00A  F00B         	movff	??___flmul+1,??___flmul+2
  4594   0018A6  C009  F00A         	movff	??___flmul,??___flmul+1
  4595   0018AA  6A09               	clrf	??___flmul^0,c
  4596   0018AC  5009               	movf	??___flmul^0,w,c
  4597   0018AE  2614               	addwf	___flmul@prod^0,f,c
  4598   0018B0  500A               	movf	(??___flmul+1)^0,w,c
  4599   0018B2  2215               	addwfc	(___flmul@prod+1)^0,f,c
  4600   0018B4  500B               	movf	(??___flmul+2)^0,w,c
  4601   0018B6  2216               	addwfc	(___flmul@prod+2)^0,f,c
  4602   0018B8  500C               	movf	(??___flmul+3)^0,w,c
  4603   0018BA  2217               	addwfc	(___flmul@prod+3)^0,f,c
  4604   0018BC  C00E  F009         	movff	___flmul@grs,??___flmul
  4605   0018C0  C00F  F00A         	movff	___flmul@grs+1,??___flmul+1
  4606   0018C4  C010  F00B         	movff	___flmul@grs+2,??___flmul+2
  4607   0018C8  C011  F00C         	movff	___flmul@grs+3,??___flmul+3
  4608   0018CC  0E19               	movlw	25
  4609   0018CE  EF6E  F00C         	goto	u2390
  4610   0018D2                     u2395:
  4611   0018D2  90D8               	bcf	status,0,c
  4612   0018D4  320C               	rrcf	(??___flmul+3)^0,f,c
  4613   0018D6  320B               	rrcf	(??___flmul+2)^0,f,c
  4614   0018D8  320A               	rrcf	(??___flmul+1)^0,f,c
  4615   0018DA  3209               	rrcf	??___flmul^0,f,c
  4616   0018DC                     u2390:
  4617   0018DC  2EE8               	decfsz	wreg,f,c
  4618   0018DE  EF69  F00C         	goto	u2395
  4619   0018E2  5009               	movf	??___flmul^0,w,c
  4620   0018E4  2614               	addwf	___flmul@prod^0,f,c
  4621   0018E6  500A               	movf	(??___flmul+1)^0,w,c
  4622   0018E8  2215               	addwfc	(___flmul@prod+1)^0,f,c
  4623   0018EA  500B               	movf	(??___flmul+2)^0,w,c
  4624   0018EC  2216               	addwfc	(___flmul@prod+2)^0,f,c
  4625   0018EE  500C               	movf	(??___flmul+3)^0,w,c
  4626   0018F0  2217               	addwfc	(___flmul@prod+3)^0,f,c
  4627   0018F2  C010  F011         	movff	___flmul@grs+2,___flmul@grs+3
  4628   0018F6  C00F  F010         	movff	___flmul@grs+1,___flmul@grs+2
  4629   0018FA  C00E  F00F         	movff	___flmul@grs,___flmul@grs+1
  4630   0018FE  6A0E               	clrf	___flmul@grs^0,c
  4631   001900  5012               	movf	___flmul@aexp^0,w,c
  4632   001902  C013  F009         	movff	___flmul@bexp,??___flmul
  4633   001906  6A0A               	clrf	(??___flmul+1)^0,c
  4634   001908  2609               	addwf	??___flmul^0,f,c
  4635   00190A  0E00               	movlw	0
  4636   00190C  220A               	addwfc	(??___flmul+1)^0,f,c
  4637   00190E  0E82               	movlw	130
  4638   001910  2409               	addwf	??___flmul^0,w,c
  4639   001912  6E18               	movwf	___flmul@temp^0,c
  4640   001914  0EFF               	movlw	255
  4641   001916  200A               	addwfc	(??___flmul+1)^0,w,c
  4642   001918  6E19               	movwf	(___flmul@temp+1)^0,c
  4643   00191A  EFA4  F00C         	goto	l2321
  4644   00191E                     l2315:
  4645   00191E  90D8               	bcf	status,0,c
  4646   001920  3614               	rlcf	___flmul@prod^0,f,c
  4647   001922  3615               	rlcf	(___flmul@prod+1)^0,f,c
  4648   001924  3616               	rlcf	(___flmul@prod+2)^0,f,c
  4649   001926  3617               	rlcf	(___flmul@prod+3)^0,f,c
  4650   001928  AE11               	btfss	(___flmul@grs+3)^0,7,c
  4651   00192A  EF99  F00C         	goto	u2401
  4652   00192E  EF9B  F00C         	goto	u2400
  4653   001932                     u2401:
  4654   001932  EF9C  F00C         	goto	l643
  4655   001936                     u2400:
  4656   001936  8014               	bsf	___flmul@prod^0,0,c
  4657   001938                     l643:
  4658   001938  90D8               	bcf	status,0,c
  4659   00193A  360E               	rlcf	___flmul@grs^0,f,c
  4660   00193C  360F               	rlcf	(___flmul@grs+1)^0,f,c
  4661   00193E  3610               	rlcf	(___flmul@grs+2)^0,f,c
  4662   001940  3611               	rlcf	(___flmul@grs+3)^0,f,c
  4663   001942  0618               	decf	___flmul@temp^0,f,c
  4664   001944  A0D8               	btfss	status,0,c
  4665   001946  0619               	decf	(___flmul@temp+1)^0,f,c
  4666   001948                     l2321:
  4667   001948  AE16               	btfss	(___flmul@prod+2)^0,7,c
  4668   00194A  EFA9  F00C         	goto	u2411
  4669   00194E  EFAB  F00C         	goto	u2410
  4670   001952                     u2411:
  4671   001952  EF8F  F00C         	goto	l2315
  4672   001956                     u2410:
  4673   001956  0E00               	movlw	0
  4674   001958  6E12               	movwf	___flmul@aexp^0,c
  4675   00195A  AE11               	btfss	(___flmul@grs+3)^0,7,c
  4676   00195C  EFB2  F00C         	goto	u2421
  4677   001960  EFB4  F00C         	goto	u2420
  4678   001964                     u2421:
  4679   001964  EFD8  F00C         	goto	l645
  4680   001968                     u2420:
  4681   001968  0EFF               	movlw	255
  4682   00196A  140E               	andwf	___flmul@grs^0,w,c
  4683   00196C  6E09               	movwf	??___flmul^0,c
  4684   00196E  0EFF               	movlw	255
  4685   001970  140F               	andwf	(___flmul@grs+1)^0,w,c
  4686   001972  6E0A               	movwf	(??___flmul+1)^0,c
  4687   001974  0EFF               	movlw	255
  4688   001976  1410               	andwf	(___flmul@grs+2)^0,w,c
  4689   001978  6E0B               	movwf	(??___flmul+2)^0,c
  4690   00197A  0E7F               	movlw	127
  4691   00197C  1411               	andwf	(___flmul@grs+3)^0,w,c
  4692   00197E  6E0C               	movwf	(??___flmul+3)^0,c
  4693   001980  5009               	movf	??___flmul^0,w,c
  4694   001982  100A               	iorwf	(??___flmul+1)^0,w,c
  4695   001984  100B               	iorwf	(??___flmul+2)^0,w,c
  4696   001986  100C               	iorwf	(??___flmul+3)^0,w,c
  4697   001988  B4D8               	btfsc	status,2,c
  4698   00198A  EFC9  F00C         	goto	u2431
  4699   00198E  EFCB  F00C         	goto	u2430
  4700   001992                     u2431:
  4701   001992  EFCF  F00C         	goto	l646
  4702   001996                     u2430:
  4703   001996                     l2329:
  4704   001996  0E01               	movlw	1
  4705   001998  6E12               	movwf	___flmul@aexp^0,c
  4706   00199A  EFD8  F00C         	goto	l645
  4707   00199E                     l646:
  4708   00199E  A014               	btfss	___flmul@prod^0,0,c
  4709   0019A0  EFD4  F00C         	goto	u2441
  4710   0019A4  EFD6  F00C         	goto	u2440
  4711   0019A8                     u2441:
  4712   0019A8  EFD8  F00C         	goto	l645
  4713   0019AC                     u2440:
  4714   0019AC  EFCB  F00C         	goto	l2329
  4715   0019B0                     l645:
  4716   0019B0  5012               	movf	___flmul@aexp^0,w,c
  4717   0019B2  B4D8               	btfsc	status,2,c
  4718   0019B4  EFDE  F00C         	goto	u2451
  4719   0019B8  EFE0  F00C         	goto	u2450
  4720   0019BC                     u2451:
  4721   0019BC  EF04  F00D         	goto	l2341
  4722   0019C0                     u2450:
  4723   0019C0  0E01               	movlw	1
  4724   0019C2  2614               	addwf	___flmul@prod^0,f,c
  4725   0019C4  0E00               	movlw	0
  4726   0019C6  2215               	addwfc	(___flmul@prod+1)^0,f,c
  4727   0019C8  2216               	addwfc	(___flmul@prod+2)^0,f,c
  4728   0019CA  2217               	addwfc	(___flmul@prod+3)^0,f,c
  4729   0019CC  A017               	btfss	(___flmul@prod+3)^0,0,c
  4730   0019CE  EFEB  F00C         	goto	u2461
  4731   0019D2  EFED  F00C         	goto	u2460
  4732   0019D6                     u2461:
  4733   0019D6  EF04  F00D         	goto	l2341
  4734   0019DA                     u2460:
  4735   0019DA  C014  F009         	movff	___flmul@prod,??___flmul
  4736   0019DE  C015  F00A         	movff	___flmul@prod+1,??___flmul+1
  4737   0019E2  C016  F00B         	movff	___flmul@prod+2,??___flmul+2
  4738   0019E6  C017  F00C         	movff	___flmul@prod+3,??___flmul+3
  4739   0019EA  340C               	rlcf	(??___flmul+3)^0,w,c
  4740   0019EC  320C               	rrcf	(??___flmul+3)^0,f,c
  4741   0019EE  320B               	rrcf	(??___flmul+2)^0,f,c
  4742   0019F0  320A               	rrcf	(??___flmul+1)^0,f,c
  4743   0019F2  3209               	rrcf	??___flmul^0,f,c
  4744   0019F4  C009  F014         	movff	??___flmul,___flmul@prod
  4745   0019F8  C00A  F015         	movff	??___flmul+1,___flmul@prod+1
  4746   0019FC  C00B  F016         	movff	??___flmul+2,___flmul@prod+2
  4747   001A00  C00C  F017         	movff	??___flmul+3,___flmul@prod+3
  4748   001A04  4A18               	infsnz	___flmul@temp^0,f,c
  4749   001A06  2A19               	incf	(___flmul@temp+1)^0,f,c
  4750   001A08                     l2341:
  4751   001A08  BE19               	btfsc	(___flmul@temp+1)^0,7,c
  4752   001A0A  EF0F  F00D         	goto	u2471
  4753   001A0E  5019               	movf	(___flmul@temp+1)^0,w,c
  4754   001A10  E108               	bnz	u2470
  4755   001A12  2818               	incf	___flmul@temp^0,w,c
  4756   001A14  A0D8               	btfss	status,0,c
  4757   001A16  EF0F  F00D         	goto	u2471
  4758   001A1A  EF11  F00D         	goto	u2470
  4759   001A1E                     u2471:
  4760   001A1E  EF1B  F00D         	goto	l2345
  4761   001A22                     u2470:
  4762   001A22  0E00               	movlw	0
  4763   001A24  6E14               	movwf	___flmul@prod^0,c
  4764   001A26  0E00               	movlw	0
  4765   001A28  6E15               	movwf	(___flmul@prod+1)^0,c
  4766   001A2A  0E80               	movlw	128
  4767   001A2C  6E16               	movwf	(___flmul@prod+2)^0,c
  4768   001A2E  0E7F               	movlw	127
  4769   001A30  6E17               	movwf	(___flmul@prod+3)^0,c
  4770   001A32  EF49  F00D         	goto	l2357
  4771   001A36                     l2345:
  4772   001A36  BE19               	btfsc	(___flmul@temp+1)^0,7,c
  4773   001A38  EF28  F00D         	goto	u2480
  4774   001A3C  5019               	movf	(___flmul@temp+1)^0,w,c
  4775   001A3E  E106               	bnz	u2481
  4776   001A40  0418               	decf	___flmul@temp^0,w,c
  4777   001A42  B0D8               	btfsc	status,0,c
  4778   001A44  EF26  F00D         	goto	u2481
  4779   001A48  EF28  F00D         	goto	u2480
  4780   001A4C                     u2481:
  4781   001A4C  EF34  F00D         	goto	l653
  4782   001A50                     u2480:
  4783   001A50  0E00               	movlw	0
  4784   001A52  6E14               	movwf	___flmul@prod^0,c
  4785   001A54  0E00               	movlw	0
  4786   001A56  6E15               	movwf	(___flmul@prod+1)^0,c
  4787   001A58  0E00               	movlw	0
  4788   001A5A  6E16               	movwf	(___flmul@prod+2)^0,c
  4789   001A5C  0E00               	movlw	0
  4790   001A5E  6E17               	movwf	(___flmul@prod+3)^0,c
  4791   001A60  0E00               	movlw	0
  4792   001A62  6E0D               	movwf	___flmul@sign^0,c
  4793   001A64  EF49  F00D         	goto	l2357
  4794   001A68                     l653:
  4795   001A68  C018  F013         	movff	___flmul@temp,___flmul@bexp
  4796   001A6C  0EFF               	movlw	255
  4797   001A6E  1614               	andwf	___flmul@prod^0,f,c
  4798   001A70  0EFF               	movlw	255
  4799   001A72  1615               	andwf	(___flmul@prod+1)^0,f,c
  4800   001A74  0E7F               	movlw	127
  4801   001A76  1616               	andwf	(___flmul@prod+2)^0,f,c
  4802   001A78  0E00               	movlw	0
  4803   001A7A  1617               	andwf	(___flmul@prod+3)^0,f,c
  4804   001A7C  A013               	btfss	___flmul@bexp^0,0,c
  4805   001A7E  EF43  F00D         	goto	u2491
  4806   001A82  EF45  F00D         	goto	u2490
  4807   001A86                     u2491:
  4808   001A86  EF46  F00D         	goto	l2355
  4809   001A8A                     u2490:
  4810   001A8A  8E16               	bsf	(___flmul@prod+2)^0,7,c
  4811   001A8C                     l2355:
  4812   001A8C  90D8               	bcf	status,0,c
  4813   001A8E  3013               	rrcf	___flmul@bexp^0,w,c
  4814   001A90  6E17               	movwf	(___flmul@prod+3)^0,c
  4815   001A92                     l2357:
  4816   001A92  500D               	movf	___flmul@sign^0,w,c
  4817   001A94  1217               	iorwf	(___flmul@prod+3)^0,f,c
  4818   001A96  C014  F001         	movff	___flmul@prod,?___flmul
  4819   001A9A  C015  F002         	movff	___flmul@prod+1,?___flmul+1
  4820   001A9E  C016  F003         	movff	___flmul@prod+2,?___flmul+2
  4821   001AA2  C017  F004         	movff	___flmul@prod+3,?___flmul+3
  4822   001AA6                     l640:
  4823   001AA6  0012               	return		;funcret
  4824   001AA8                     __end_of___flmul:
  4825                           	callstack 0
  4826                           
  4827 ;; *************** function ___flge *****************
  4828 ;; Defined at:
  4829 ;;		line 4 in file "C:\Program Files\Microchip\xc8\v2.46\pic\sources\c99\common\flge.c"
  4830 ;; Parameters:    Size  Location     Type
  4831 ;;  ff1             4   25[COMRAM] unsigned char 
  4832 ;;  ff2             4   29[COMRAM] unsigned char 
  4833 ;; Auto vars:     Size  Location     Type
  4834 ;;		None
  4835 ;; Return value:  Size  Location     Type
  4836 ;;		None               void
  4837 ;; Registers used:
  4838 ;;		wreg, status,2, status,0
  4839 ;; Tracked objects:
  4840 ;;		On entry : 0/0
  4841 ;;		On exit  : 0/0
  4842 ;;		Unchanged: 0/0
  4843 ;; Data sizes:     COMRAM   BANK0   BANK1   BANK2   BANK3   BANK4   BANK5   BANK6   BANK7
  4844 ;;      Params:         8       0       0       0       0       0       0       0       0
  4845 ;;      Locals:         0       0       0       0       0       0       0       0       0
  4846 ;;      Temps:          4       0       0       0       0       0       0       0       0
  4847 ;;      Totals:        12       0       0       0       0       0       0       0       0
  4848 ;;Total ram usage:       12 bytes
  4849 ;; Hardware stack levels used: 1
  4850 ;; This function calls:
  4851 ;;		Nothing
  4852 ;; This function is called by:
  4853 ;;		_efgtoa
  4854 ;; This function uses a non-reentrant model
  4855 ;;
  4856                           
  4857                           	psect	text19
  4858   0022F2                     __ptext19:
  4859                           	callstack 0
  4860   0022F2                     ___flge:
  4861                           	callstack 26
  4862   0022F2  0E00               	movlw	0
  4863   0022F4  141A               	andwf	___flge@ff1^0,w,c
  4864   0022F6  6E22               	movwf	??___flge^0,c
  4865   0022F8  0E00               	movlw	0
  4866   0022FA  141B               	andwf	(___flge@ff1+1)^0,w,c
  4867   0022FC  6E23               	movwf	(??___flge+1)^0,c
  4868   0022FE  0E80               	movlw	128
  4869   002300  141C               	andwf	(___flge@ff1+2)^0,w,c
  4870   002302  6E24               	movwf	(??___flge+2)^0,c
  4871   002304  0E7F               	movlw	127
  4872   002306  141D               	andwf	(___flge@ff1+3)^0,w,c
  4873   002308  6E25               	movwf	(??___flge+3)^0,c
  4874   00230A  5022               	movf	??___flge^0,w,c
  4875   00230C  1023               	iorwf	(??___flge+1)^0,w,c
  4876   00230E  1024               	iorwf	(??___flge+2)^0,w,c
  4877   002310  1025               	iorwf	(??___flge+3)^0,w,c
  4878   002312  A4D8               	btfss	status,2,c
  4879   002314  EF8E  F011         	goto	u2531
  4880   002318  EF90  F011         	goto	u2530
  4881   00231C                     u2531:
  4882   00231C  EF98  F011         	goto	l2389
  4883   002320                     u2530:
  4884   002320  0E00               	movlw	0
  4885   002322  6E1A               	movwf	___flge@ff1^0,c
  4886   002324  0E00               	movlw	0
  4887   002326  6E1B               	movwf	(___flge@ff1+1)^0,c
  4888   002328  0E00               	movlw	0
  4889   00232A  6E1C               	movwf	(___flge@ff1+2)^0,c
  4890   00232C  0E00               	movlw	0
  4891   00232E  6E1D               	movwf	(___flge@ff1+3)^0,c
  4892   002330                     l2389:
  4893   002330  0E00               	movlw	0
  4894   002332  141E               	andwf	___flge@ff2^0,w,c
  4895   002334  6E22               	movwf	??___flge^0,c
  4896   002336  0E00               	movlw	0
  4897   002338  141F               	andwf	(___flge@ff2+1)^0,w,c
  4898   00233A  6E23               	movwf	(??___flge+1)^0,c
  4899   00233C  0E80               	movlw	128
  4900   00233E  1420               	andwf	(___flge@ff2+2)^0,w,c
  4901   002340  6E24               	movwf	(??___flge+2)^0,c
  4902   002342  0E7F               	movlw	127
  4903   002344  1421               	andwf	(___flge@ff2+3)^0,w,c
  4904   002346  6E25               	movwf	(??___flge+3)^0,c
  4905   002348  5022               	movf	??___flge^0,w,c
  4906   00234A  1023               	iorwf	(??___flge+1)^0,w,c
  4907   00234C  1024               	iorwf	(??___flge+2)^0,w,c
  4908   00234E  1025               	iorwf	(??___flge+3)^0,w,c
  4909   002350  A4D8               	btfss	status,2,c
  4910   002352  EFAD  F011         	goto	u2541
  4911   002356  EFAF  F011         	goto	u2540
  4912   00235A                     u2541:
  4913   00235A  EFB7  F011         	goto	l2393
  4914   00235E                     u2540:
  4915   00235E  0E00               	movlw	0
  4916   002360  6E1E               	movwf	___flge@ff2^0,c
  4917   002362  0E00               	movlw	0
  4918   002364  6E1F               	movwf	(___flge@ff2+1)^0,c
  4919   002366  0E00               	movlw	0
  4920   002368  6E20               	movwf	(___flge@ff2+2)^0,c
  4921   00236A  0E00               	movlw	0
  4922   00236C  6E21               	movwf	(___flge@ff2+3)^0,c
  4923   00236E                     l2393:
  4924   00236E  AE1D               	btfss	(___flge@ff1+3)^0,7,c
  4925   002370  EFBC  F011         	goto	u2551
  4926   002374  EFBE  F011         	goto	u2550
  4927   002378                     u2551:
  4928   002378  EFC7  F011         	goto	l2397
  4929   00237C                     u2550:
  4930   00237C  6C1A               	negf	___flge@ff1^0,c
  4931   00237E  1E1B               	comf	(___flge@ff1+1)^0,f,c
  4932   002380  B0D8               	btfsc	status,0,c
  4933   002382  2A1B               	incf	(___flge@ff1+1)^0,f,c
  4934   002384  1E1C               	comf	(___flge@ff1+2)^0,f,c
  4935   002386  B0D8               	btfsc	status,0,c
  4936   002388  2A1C               	incf	(___flge@ff1+2)^0,f,c
  4937   00238A  0E80               	movlw	128
  4938   00238C  561D               	subfwb	(___flge@ff1+3)^0,f,c
  4939   00238E                     l2397:
  4940   00238E  AE21               	btfss	(___flge@ff2+3)^0,7,c
  4941   002390  EFCC  F011         	goto	u2561
  4942   002394  EFCE  F011         	goto	u2560
  4943   002398                     u2561:
  4944   002398  EFD7  F011         	goto	l287
  4945   00239C                     u2560:
  4946   00239C  6C1E               	negf	___flge@ff2^0,c
  4947   00239E  1E1F               	comf	(___flge@ff2+1)^0,f,c
  4948   0023A0  B0D8               	btfsc	status,0,c
  4949   0023A2  2A1F               	incf	(___flge@ff2+1)^0,f,c
  4950   0023A4  1E20               	comf	(___flge@ff2+2)^0,f,c
  4951   0023A6  B0D8               	btfsc	status,0,c
  4952   0023A8  2A20               	incf	(___flge@ff2+2)^0,f,c
  4953   0023AA  0E80               	movlw	128
  4954   0023AC  5621               	subfwb	(___flge@ff2+3)^0,f,c
  4955   0023AE                     l287:
  4956   0023AE  0E00               	movlw	0
  4957   0023B0  1A1A               	xorwf	___flge@ff1^0,f,c
  4958   0023B2  0E00               	movlw	0
  4959   0023B4  1A1B               	xorwf	(___flge@ff1+1)^0,f,c
  4960   0023B6  0E00               	movlw	0
  4961   0023B8  1A1C               	xorwf	(___flge@ff1+2)^0,f,c
  4962   0023BA  0E80               	movlw	128
  4963   0023BC  1A1D               	xorwf	(___flge@ff1+3)^0,f,c
  4964   0023BE  0E00               	movlw	0
  4965   0023C0  1A1E               	xorwf	___flge@ff2^0,f,c
  4966   0023C2  0E00               	movlw	0
  4967   0023C4  1A1F               	xorwf	(___flge@ff2+1)^0,f,c
  4968   0023C6  0E00               	movlw	0
  4969   0023C8  1A20               	xorwf	(___flge@ff2+2)^0,f,c
  4970   0023CA  0E80               	movlw	128
  4971   0023CC  1A21               	xorwf	(___flge@ff2+3)^0,f,c
  4972   0023CE  501E               	movf	___flge@ff2^0,w,c
  4973   0023D0  5C1A               	subwf	___flge@ff1^0,w,c
  4974   0023D2  501F               	movf	(___flge@ff2+1)^0,w,c
  4975   0023D4  581B               	subwfb	(___flge@ff1+1)^0,w,c
  4976   0023D6  5020               	movf	(___flge@ff2+2)^0,w,c
  4977   0023D8  581C               	subwfb	(___flge@ff1+2)^0,w,c
  4978   0023DA  5021               	movf	(___flge@ff2+3)^0,w,c
  4979   0023DC  581D               	subwfb	(___flge@ff1+3)^0,w,c
  4980   0023DE  B0D8               	btfsc	status,0,c
  4981   0023E0  EFF4  F011         	goto	u2571
  4982   0023E4  EFF6  F011         	goto	u2570
  4983   0023E8                     u2571:
  4984   0023E8  EFF9  F011         	goto	l2403
  4985   0023EC                     u2570:
  4986   0023EC  90D8               	bcf	status,0,c
  4987   0023EE  EFFA  F011         	goto	l292
  4988   0023F2                     l2403:
  4989   0023F2  80D8               	bsf	status,0,c
  4990   0023F4                     l292:
  4991   0023F4  0012               	return		;funcret
  4992   0023F6                     __end_of___flge:
  4993                           	callstack 0
  4994                           
  4995 ;; *************** function ___fleq *****************
  4996 ;; Defined at:
  4997 ;;		line 4 in file "C:\Program Files\Microchip\xc8\v2.46\pic\sources\c99\common\fleq.c"
  4998 ;; Parameters:    Size  Location     Type
  4999 ;;  ff1             4    0[COMRAM] unsigned char 
  5000 ;;  ff2             4    4[COMRAM] unsigned char 
  5001 ;; Auto vars:     Size  Location     Type
  5002 ;;		None
  5003 ;; Return value:  Size  Location     Type
  5004 ;;		None               void
  5005 ;; Registers used:
  5006 ;;		wreg, status,2, status,0
  5007 ;; Tracked objects:
  5008 ;;		On entry : 0/0
  5009 ;;		On exit  : 0/0
  5010 ;;		Unchanged: 0/0
  5011 ;; Data sizes:     COMRAM   BANK0   BANK1   BANK2   BANK3   BANK4   BANK5   BANK6   BANK7
  5012 ;;      Params:         8       0       0       0       0       0       0       0       0
  5013 ;;      Locals:         0       0       0       0       0       0       0       0       0
  5014 ;;      Temps:          4       0       0       0       0       0       0       0       0
  5015 ;;      Totals:        12       0       0       0       0       0       0       0       0
  5016 ;;Total ram usage:       12 bytes
  5017 ;; Hardware stack levels used: 1
  5018 ;; This function calls:
  5019 ;;		Nothing
  5020 ;; This function is called by:
  5021 ;;		_efgtoa
  5022 ;; This function uses a non-reentrant model
  5023 ;;
  5024                           
  5025                           	psect	text20
  5026   0025BE                     __ptext20:
  5027                           	callstack 0
  5028   0025BE                     ___fleq:
  5029                           	callstack 26
  5030   0025BE  0E00               	movlw	0
  5031   0025C0  1401               	andwf	___fleq@ff1^0,w,c
  5032   0025C2  6E09               	movwf	??___fleq^0,c
  5033   0025C4  0E00               	movlw	0
  5034   0025C6  1402               	andwf	(___fleq@ff1+1)^0,w,c
  5035   0025C8  6E0A               	movwf	(??___fleq+1)^0,c
  5036   0025CA  0E80               	movlw	128
  5037   0025CC  1403               	andwf	(___fleq@ff1+2)^0,w,c
  5038   0025CE  6E0B               	movwf	(??___fleq+2)^0,c
  5039   0025D0  0E7F               	movlw	127
  5040   0025D2  1404               	andwf	(___fleq@ff1+3)^0,w,c
  5041   0025D4  6E0C               	movwf	(??___fleq+3)^0,c
  5042   0025D6  5009               	movf	??___fleq^0,w,c
  5043   0025D8  100A               	iorwf	(??___fleq+1)^0,w,c
  5044   0025DA  100B               	iorwf	(??___fleq+2)^0,w,c
  5045   0025DC  100C               	iorwf	(??___fleq+3)^0,w,c
  5046   0025DE  A4D8               	btfss	status,2,c
  5047   0025E0  EFF4  F012         	goto	u2501
  5048   0025E4  EFF6  F012         	goto	u2500
  5049   0025E8                     u2501:
  5050   0025E8  EFFE  F012         	goto	l2373
  5051   0025EC                     u2500:
  5052   0025EC  0E00               	movlw	0
  5053   0025EE  6E01               	movwf	___fleq@ff1^0,c
  5054   0025F0  0E00               	movlw	0
  5055   0025F2  6E02               	movwf	(___fleq@ff1+1)^0,c
  5056   0025F4  0E00               	movlw	0
  5057   0025F6  6E03               	movwf	(___fleq@ff1+2)^0,c
  5058   0025F8  0E00               	movlw	0
  5059   0025FA  6E04               	movwf	(___fleq@ff1+3)^0,c
  5060   0025FC                     l2373:
  5061   0025FC  0E00               	movlw	0
  5062   0025FE  1405               	andwf	___fleq@ff2^0,w,c
  5063   002600  6E09               	movwf	??___fleq^0,c
  5064   002602  0E00               	movlw	0
  5065   002604  1406               	andwf	(___fleq@ff2+1)^0,w,c
  5066   002606  6E0A               	movwf	(??___fleq+1)^0,c
  5067   002608  0E80               	movlw	128
  5068   00260A  1407               	andwf	(___fleq@ff2+2)^0,w,c
  5069   00260C  6E0B               	movwf	(??___fleq+2)^0,c
  5070   00260E  0E7F               	movlw	127
  5071   002610  1408               	andwf	(___fleq@ff2+3)^0,w,c
  5072   002612  6E0C               	movwf	(??___fleq+3)^0,c
  5073   002614  5009               	movf	??___fleq^0,w,c
  5074   002616  100A               	iorwf	(??___fleq+1)^0,w,c
  5075   002618  100B               	iorwf	(??___fleq+2)^0,w,c
  5076   00261A  100C               	iorwf	(??___fleq+3)^0,w,c
  5077   00261C  A4D8               	btfss	status,2,c
  5078   00261E  EF13  F013         	goto	u2511
  5079   002622  EF15  F013         	goto	u2510
  5080   002626                     u2511:
  5081   002626  EF1D  F013         	goto	l2377
  5082   00262A                     u2510:
  5083   00262A  0E00               	movlw	0
  5084   00262C  6E05               	movwf	___fleq@ff2^0,c
  5085   00262E  0E00               	movlw	0
  5086   002630  6E06               	movwf	(___fleq@ff2+1)^0,c
  5087   002632  0E00               	movlw	0
  5088   002634  6E07               	movwf	(___fleq@ff2+2)^0,c
  5089   002636  0E00               	movlw	0
  5090   002638  6E08               	movwf	(___fleq@ff2+3)^0,c
  5091   00263A                     l2377:
  5092   00263A  5005               	movf	___fleq@ff2^0,w,c
  5093   00263C  1801               	xorwf	___fleq@ff1^0,w,c
  5094   00263E  E10F               	bnz	u2520
  5095   002640  5006               	movf	(___fleq@ff2+1)^0,w,c
  5096   002642  1802               	xorwf	(___fleq@ff1+1)^0,w,c
  5097   002644  E10C               	bnz	u2520
  5098   002646  5007               	movf	(___fleq@ff2+2)^0,w,c
  5099   002648  1803               	xorwf	(___fleq@ff1+2)^0,w,c
  5100   00264A  E109               	bnz	u2520
  5101   00264C  5008               	movf	(___fleq@ff2+3)^0,w,c
  5102   00264E  1804               	xorwf	(___fleq@ff1+3)^0,w,c
  5103   002650  B4D8               	btfsc	status,2,c
  5104   002652  EF2D  F013         	goto	u2521
  5105   002656  EF2F  F013         	goto	u2520
  5106   00265A                     u2521:
  5107   00265A  EF32  F013         	goto	l2381
  5108   00265E                     u2520:
  5109   00265E  90D8               	bcf	status,0,c
  5110   002660  EF33  F013         	goto	l281
  5111   002664                     l2381:
  5112   002664  80D8               	bsf	status,0,c
  5113   002666                     l281:
  5114   002666  0012               	return		;funcret
  5115   002668                     __end_of___fleq:
  5116                           	callstack 0
  5117                           
  5118 ;; *************** function ___fldiv *****************
  5119 ;; Defined at:
  5120 ;;		line 11 in file "C:\Program Files\Microchip\xc8\v2.46\pic\sources\c99\common\sprcdiv.c"
  5121 ;; Parameters:    Size  Location     Type
  5122 ;;  b               4    0[COMRAM] unsigned char 
  5123 ;;  a               4    4[COMRAM] unsigned char 
  5124 ;; Auto vars:     Size  Location     Type
  5125 ;;  grs             4   19[COMRAM] unsigned long 
  5126 ;;  rem             4   12[COMRAM] unsigned long 
  5127 ;;  new_exp         2   17[COMRAM] short 
  5128 ;;  aexp            1   24[COMRAM] unsigned char 
  5129 ;;  bexp            1   23[COMRAM] unsigned char 
  5130 ;;  sign            1   16[COMRAM] unsigned char 
  5131 ;; Return value:  Size  Location     Type
  5132 ;;                  4    0[COMRAM] unsigned char 
  5133 ;; Registers used:
  5134 ;;		wreg, status,2, status,0
  5135 ;; Tracked objects:
  5136 ;;		On entry : 0/0
  5137 ;;		On exit  : 0/0
  5138 ;;		Unchanged: 0/0
  5139 ;; Data sizes:     COMRAM   BANK0   BANK1   BANK2   BANK3   BANK4   BANK5   BANK6   BANK7
  5140 ;;      Params:         8       0       0       0       0       0       0       0       0
  5141 ;;      Locals:        13       0       0       0       0       0       0       0       0
  5142 ;;      Temps:          4       0       0       0       0       0       0       0       0
  5143 ;;      Totals:        25       0       0       0       0       0       0       0       0
  5144 ;;Total ram usage:       25 bytes
  5145 ;; Hardware stack levels used: 1
  5146 ;; This function calls:
  5147 ;;		Nothing
  5148 ;; This function is called by:
  5149 ;;		_efgtoa
  5150 ;; This function uses a non-reentrant model
  5151 ;;
  5152                           
  5153                           	psect	text21
  5154   001AA8                     __ptext21:
  5155                           	callstack 0
  5156   001AA8                     ___fldiv:
  5157                           	callstack 26
  5158   001AA8  5004               	movf	(___fldiv@b+3)^0,w,c
  5159   001AAA  0B80               	andlw	128
  5160   001AAC  6E11               	movwf	___fldiv@sign^0,c
  5161   001AAE  5004               	movf	(___fldiv@b+3)^0,w,c
  5162   001AB0  2404               	addwf	(___fldiv@b+3)^0,w,c
  5163   001AB2  6E18               	movwf	___fldiv@bexp^0,c
  5164   001AB4  AE03               	btfss	(___fldiv@b+2)^0,7,c
  5165   001AB6  EF5F  F00D         	goto	u2081
  5166   001ABA  EF61  F00D         	goto	u2080
  5167   001ABE                     u2081:
  5168   001ABE  EF62  F00D         	goto	l2101
  5169   001AC2                     u2080:
  5170   001AC2  8018               	bsf	___fldiv@bexp^0,0,c
  5171   001AC4                     l2101:
  5172   001AC4  5018               	movf	___fldiv@bexp^0,w,c
  5173   001AC6  B4D8               	btfsc	status,2,c
  5174   001AC8  EF68  F00D         	goto	u2091
  5175   001ACC  EF6A  F00D         	goto	u2090
  5176   001AD0                     u2091:
  5177   001AD0  EF7F  F00D         	goto	l2111
  5178   001AD4                     u2090:
  5179   001AD4  2818               	incf	___fldiv@bexp^0,w,c
  5180   001AD6  A4D8               	btfss	status,2,c
  5181   001AD8  EF70  F00D         	goto	u2101
  5182   001ADC  EF72  F00D         	goto	u2100
  5183   001AE0                     u2101:
  5184   001AE0  EF7A  F00D         	goto	l2107
  5185   001AE4                     u2100:
  5186   001AE4  0E00               	movlw	0
  5187   001AE6  6E01               	movwf	___fldiv@b^0,c
  5188   001AE8  0E00               	movlw	0
  5189   001AEA  6E02               	movwf	(___fldiv@b+1)^0,c
  5190   001AEC  0E00               	movlw	0
  5191   001AEE  6E03               	movwf	(___fldiv@b+2)^0,c
  5192   001AF0  0E00               	movlw	0
  5193   001AF2  6E04               	movwf	(___fldiv@b+3)^0,c
  5194   001AF4                     l2107:
  5195   001AF4  8E03               	bsf	(___fldiv@b+2)^0,7,c
  5196   001AF6  0E00               	movlw	0
  5197   001AF8  6E04               	movwf	(___fldiv@b+3)^0,c
  5198   001AFA  EF87  F00D         	goto	l2113
  5199   001AFE                     l2111:
  5200   001AFE  0E00               	movlw	0
  5201   001B00  6E01               	movwf	___fldiv@b^0,c
  5202   001B02  0E00               	movlw	0
  5203   001B04  6E02               	movwf	(___fldiv@b+1)^0,c
  5204   001B06  0E00               	movlw	0
  5205   001B08  6E03               	movwf	(___fldiv@b+2)^0,c
  5206   001B0A  0E00               	movlw	0
  5207   001B0C  6E04               	movwf	(___fldiv@b+3)^0,c
  5208   001B0E                     l2113:
  5209   001B0E  5008               	movf	(___fldiv@a+3)^0,w,c
  5210   001B10  0B80               	andlw	128
  5211   001B12  1A11               	xorwf	___fldiv@sign^0,f,c
  5212   001B14  5008               	movf	(___fldiv@a+3)^0,w,c
  5213   001B16  2408               	addwf	(___fldiv@a+3)^0,w,c
  5214   001B18  6E19               	movwf	___fldiv@aexp^0,c
  5215   001B1A  AE07               	btfss	(___fldiv@a+2)^0,7,c
  5216   001B1C  EF92  F00D         	goto	u2111
  5217   001B20  EF94  F00D         	goto	u2110
  5218   001B24                     u2111:
  5219   001B24  EF95  F00D         	goto	l2121
  5220   001B28                     u2110:
  5221   001B28  8019               	bsf	___fldiv@aexp^0,0,c
  5222   001B2A                     l2121:
  5223   001B2A  5019               	movf	___fldiv@aexp^0,w,c
  5224   001B2C  B4D8               	btfsc	status,2,c
  5225   001B2E  EF9B  F00D         	goto	u2121
  5226   001B32  EF9D  F00D         	goto	u2120
  5227   001B36                     u2121:
  5228   001B36  EFB2  F00D         	goto	l2131
  5229   001B3A                     u2120:
  5230   001B3A  2819               	incf	___fldiv@aexp^0,w,c
  5231   001B3C  A4D8               	btfss	status,2,c
  5232   001B3E  EFA3  F00D         	goto	u2131
  5233   001B42  EFA5  F00D         	goto	u2130
  5234   001B46                     u2131:
  5235   001B46  EFAD  F00D         	goto	l2127
  5236   001B4A                     u2130:
  5237   001B4A  0E00               	movlw	0
  5238   001B4C  6E05               	movwf	___fldiv@a^0,c
  5239   001B4E  0E00               	movlw	0
  5240   001B50  6E06               	movwf	(___fldiv@a+1)^0,c
  5241   001B52  0E00               	movlw	0
  5242   001B54  6E07               	movwf	(___fldiv@a+2)^0,c
  5243   001B56  0E00               	movlw	0
  5244   001B58  6E08               	movwf	(___fldiv@a+3)^0,c
  5245   001B5A                     l2127:
  5246   001B5A  8E07               	bsf	(___fldiv@a+2)^0,7,c
  5247   001B5C  0E00               	movlw	0
  5248   001B5E  6E08               	movwf	(___fldiv@a+3)^0,c
  5249   001B60  EFBA  F00D         	goto	l2133
  5250   001B64                     l2131:
  5251   001B64  0E00               	movlw	0
  5252   001B66  6E05               	movwf	___fldiv@a^0,c
  5253   001B68  0E00               	movlw	0
  5254   001B6A  6E06               	movwf	(___fldiv@a+1)^0,c
  5255   001B6C  0E00               	movlw	0
  5256   001B6E  6E07               	movwf	(___fldiv@a+2)^0,c
  5257   001B70  0E00               	movlw	0
  5258   001B72  6E08               	movwf	(___fldiv@a+3)^0,c
  5259   001B74                     l2133:
  5260   001B74  5005               	movf	___fldiv@a^0,w,c
  5261   001B76  1006               	iorwf	(___fldiv@a+1)^0,w,c
  5262   001B78  1007               	iorwf	(___fldiv@a+2)^0,w,c
  5263   001B7A  1008               	iorwf	(___fldiv@a+3)^0,w,c
  5264   001B7C  A4D8               	btfss	status,2,c
  5265   001B7E  EFC3  F00D         	goto	u2141
  5266   001B82  EFC5  F00D         	goto	u2140
  5267   001B86                     u2141:
  5268   001B86  EFDD  F00D         	goto	l2145
  5269   001B8A                     u2140:
  5270   001B8A  0E00               	movlw	0
  5271   001B8C  6E01               	movwf	___fldiv@b^0,c
  5272   001B8E  0E00               	movlw	0
  5273   001B90  6E02               	movwf	(___fldiv@b+1)^0,c
  5274   001B92  0E00               	movlw	0
  5275   001B94  6E03               	movwf	(___fldiv@b+2)^0,c
  5276   001B96  0E00               	movlw	0
  5277   001B98  6E04               	movwf	(___fldiv@b+3)^0,c
  5278   001B9A  0E80               	movlw	128
  5279   001B9C  1203               	iorwf	(___fldiv@b+2)^0,f,c
  5280   001B9E  0E7F               	movlw	127
  5281   001BA0  1204               	iorwf	(___fldiv@b+3)^0,f,c
  5282   001BA2                     l2139:
  5283   001BA2  5011               	movf	___fldiv@sign^0,w,c
  5284   001BA4  1204               	iorwf	(___fldiv@b+3)^0,f,c
  5285   001BA6  C001  F001         	movff	___fldiv@b,?___fldiv
  5286   001BAA  C002  F002         	movff	___fldiv@b+1,?___fldiv+1
  5287   001BAE  C003  F003         	movff	___fldiv@b+2,?___fldiv+2
  5288   001BB2  C004  F004         	movff	___fldiv@b+3,?___fldiv+3
  5289   001BB6  EF20  F00F         	goto	l604
  5290   001BBA                     l2145:
  5291   001BBA  5018               	movf	___fldiv@bexp^0,w,c
  5292   001BBC  A4D8               	btfss	status,2,c
  5293   001BBE  EFE3  F00D         	goto	u2151
  5294   001BC2  EFE5  F00D         	goto	u2150
  5295   001BC6                     u2151:
  5296   001BC6  EFEF  F00D         	goto	l2153
  5297   001BCA                     u2150:
  5298   001BCA  0E00               	movlw	0
  5299   001BCC  6E01               	movwf	?___fldiv^0,c
  5300   001BCE  0E00               	movlw	0
  5301   001BD0  6E02               	movwf	(?___fldiv+1)^0,c
  5302   001BD2  0E00               	movlw	0
  5303   001BD4  6E03               	movwf	(?___fldiv+2)^0,c
  5304   001BD6  0E00               	movlw	0
  5305   001BD8  6E04               	movwf	(?___fldiv+3)^0,c
  5306   001BDA  EF20  F00F         	goto	l604
  5307   001BDE                     l2153:
  5308   001BDE  5019               	movf	___fldiv@aexp^0,w,c
  5309   001BE0  C018  F009         	movff	___fldiv@bexp,??___fldiv
  5310   001BE4  6A0A               	clrf	(??___fldiv+1)^0,c
  5311   001BE6  5E09               	subwf	??___fldiv^0,f,c
  5312   001BE8  0E00               	movlw	0
  5313   001BEA  5A0A               	subwfb	(??___fldiv+1)^0,f,c
  5314   001BEC  0E7F               	movlw	127
  5315   001BEE  2409               	addwf	??___fldiv^0,w,c
  5316   001BF0  6E12               	movwf	___fldiv@new_exp^0,c
  5317   001BF2  0E00               	movlw	0
  5318   001BF4  200A               	addwfc	(??___fldiv+1)^0,w,c
  5319   001BF6  6E13               	movwf	(___fldiv@new_exp+1)^0,c
  5320   001BF8  C001  F00D         	movff	___fldiv@b,___fldiv@rem
  5321   001BFC  C002  F00E         	movff	___fldiv@b+1,___fldiv@rem+1
  5322   001C00  C003  F00F         	movff	___fldiv@b+2,___fldiv@rem+2
  5323   001C04  C004  F010         	movff	___fldiv@b+3,___fldiv@rem+3
  5324   001C08  0E00               	movlw	0
  5325   001C0A  6E01               	movwf	___fldiv@b^0,c
  5326   001C0C  0E00               	movlw	0
  5327   001C0E  6E02               	movwf	(___fldiv@b+1)^0,c
  5328   001C10  0E00               	movlw	0
  5329   001C12  6E03               	movwf	(___fldiv@b+2)^0,c
  5330   001C14  0E00               	movlw	0
  5331   001C16  6E04               	movwf	(___fldiv@b+3)^0,c
  5332   001C18  0E00               	movlw	0
  5333   001C1A  6E14               	movwf	___fldiv@grs^0,c
  5334   001C1C  0E00               	movlw	0
  5335   001C1E  6E15               	movwf	(___fldiv@grs+1)^0,c
  5336   001C20  0E00               	movlw	0
  5337   001C22  6E16               	movwf	(___fldiv@grs+2)^0,c
  5338   001C24  0E00               	movlw	0
  5339   001C26  6E17               	movwf	(___fldiv@grs+3)^0,c
  5340   001C28  0E00               	movlw	0
  5341   001C2A  6E19               	movwf	___fldiv@aexp^0,c
  5342   001C2C  EF50  F00E         	goto	l606
  5343   001C30                     l2163:
  5344   001C30  5019               	movf	___fldiv@aexp^0,w,c
  5345   001C32  B4D8               	btfsc	status,2,c
  5346   001C34  EF1E  F00E         	goto	u2161
  5347   001C38  EF20  F00E         	goto	u2160
  5348   001C3C                     u2161:
  5349   001C3C  EF37  F00E         	goto	l2171
  5350   001C40                     u2160:
  5351   001C40  90D8               	bcf	status,0,c
  5352   001C42  360D               	rlcf	___fldiv@rem^0,f,c
  5353   001C44  360E               	rlcf	(___fldiv@rem+1)^0,f,c
  5354   001C46  360F               	rlcf	(___fldiv@rem+2)^0,f,c
  5355   001C48  3610               	rlcf	(___fldiv@rem+3)^0,f,c
  5356   001C4A  90D8               	bcf	status,0,c
  5357   001C4C  3601               	rlcf	___fldiv@b^0,f,c
  5358   001C4E  3602               	rlcf	(___fldiv@b+1)^0,f,c
  5359   001C50  3603               	rlcf	(___fldiv@b+2)^0,f,c
  5360   001C52  3604               	rlcf	(___fldiv@b+3)^0,f,c
  5361   001C54  AE17               	btfss	(___fldiv@grs+3)^0,7,c
  5362   001C56  EF2F  F00E         	goto	u2171
  5363   001C5A  EF31  F00E         	goto	u2170
  5364   001C5E                     u2171:
  5365   001C5E  EF32  F00E         	goto	l609
  5366   001C62                     u2170:
  5367   001C62  8001               	bsf	___fldiv@b^0,0,c
  5368   001C64                     l609:
  5369   001C64  90D8               	bcf	status,0,c
  5370   001C66  3614               	rlcf	___fldiv@grs^0,f,c
  5371   001C68  3615               	rlcf	(___fldiv@grs+1)^0,f,c
  5372   001C6A  3616               	rlcf	(___fldiv@grs+2)^0,f,c
  5373   001C6C  3617               	rlcf	(___fldiv@grs+3)^0,f,c
  5374   001C6E                     l2171:
  5375   001C6E  5005               	movf	___fldiv@a^0,w,c
  5376   001C70  5C0D               	subwf	___fldiv@rem^0,w,c
  5377   001C72  5006               	movf	(___fldiv@a+1)^0,w,c
  5378   001C74  580E               	subwfb	(___fldiv@rem+1)^0,w,c
  5379   001C76  5007               	movf	(___fldiv@a+2)^0,w,c
  5380   001C78  580F               	subwfb	(___fldiv@rem+2)^0,w,c
  5381   001C7A  5008               	movf	(___fldiv@a+3)^0,w,c
  5382   001C7C  5810               	subwfb	(___fldiv@rem+3)^0,w,c
  5383   001C7E  A0D8               	btfss	status,0,c
  5384   001C80  EF44  F00E         	goto	u2181
  5385   001C84  EF46  F00E         	goto	u2180
  5386   001C88                     u2181:
  5387   001C88  EF4F  F00E         	goto	l2177
  5388   001C8C                     u2180:
  5389   001C8C  8C17               	bsf	(___fldiv@grs+3)^0,6,c
  5390   001C8E  5005               	movf	___fldiv@a^0,w,c
  5391   001C90  5E0D               	subwf	___fldiv@rem^0,f,c
  5392   001C92  5006               	movf	(___fldiv@a+1)^0,w,c
  5393   001C94  5A0E               	subwfb	(___fldiv@rem+1)^0,f,c
  5394   001C96  5007               	movf	(___fldiv@a+2)^0,w,c
  5395   001C98  5A0F               	subwfb	(___fldiv@rem+2)^0,f,c
  5396   001C9A  5008               	movf	(___fldiv@a+3)^0,w,c
  5397   001C9C  5A10               	subwfb	(___fldiv@rem+3)^0,f,c
  5398   001C9E                     l2177:
  5399   001C9E  2A19               	incf	___fldiv@aexp^0,f,c
  5400   001CA0                     l606:
  5401   001CA0  0E19               	movlw	25
  5402   001CA2  6419               	cpfsgt	___fldiv@aexp^0,c
  5403   001CA4  EF56  F00E         	goto	u2191
  5404   001CA8  EF58  F00E         	goto	u2190
  5405   001CAC                     u2191:
  5406   001CAC  EF18  F00E         	goto	l2163
  5407   001CB0                     u2190:
  5408   001CB0  500D               	movf	___fldiv@rem^0,w,c
  5409   001CB2  100E               	iorwf	(___fldiv@rem+1)^0,w,c
  5410   001CB4  100F               	iorwf	(___fldiv@rem+2)^0,w,c
  5411   001CB6  1010               	iorwf	(___fldiv@rem+3)^0,w,c
  5412   001CB8  B4D8               	btfsc	status,2,c
  5413   001CBA  EF61  F00E         	goto	u2201
  5414   001CBE  EF63  F00E         	goto	u2200
  5415   001CC2                     u2201:
  5416   001CC2  EF7B  F00E         	goto	l2189
  5417   001CC6                     u2200:
  5418   001CC6  8014               	bsf	___fldiv@grs^0,0,c
  5419   001CC8  EF7B  F00E         	goto	l2189
  5420   001CCC                     l2183:
  5421   001CCC  90D8               	bcf	status,0,c
  5422   001CCE  3601               	rlcf	___fldiv@b^0,f,c
  5423   001CD0  3602               	rlcf	(___fldiv@b+1)^0,f,c
  5424   001CD2  3603               	rlcf	(___fldiv@b+2)^0,f,c
  5425   001CD4  3604               	rlcf	(___fldiv@b+3)^0,f,c
  5426   001CD6  AE17               	btfss	(___fldiv@grs+3)^0,7,c
  5427   001CD8  EF70  F00E         	goto	u2211
  5428   001CDC  EF72  F00E         	goto	u2210
  5429   001CE0                     u2211:
  5430   001CE0  EF73  F00E         	goto	l615
  5431   001CE4                     u2210:
  5432   001CE4  8001               	bsf	___fldiv@b^0,0,c
  5433   001CE6                     l615:
  5434   001CE6  90D8               	bcf	status,0,c
  5435   001CE8  3614               	rlcf	___fldiv@grs^0,f,c
  5436   001CEA  3615               	rlcf	(___fldiv@grs+1)^0,f,c
  5437   001CEC  3616               	rlcf	(___fldiv@grs+2)^0,f,c
  5438   001CEE  3617               	rlcf	(___fldiv@grs+3)^0,f,c
  5439   001CF0  0612               	decf	___fldiv@new_exp^0,f,c
  5440   001CF2  A0D8               	btfss	status,0,c
  5441   001CF4  0613               	decf	(___fldiv@new_exp+1)^0,f,c
  5442   001CF6                     l2189:
  5443   001CF6  AE03               	btfss	(___fldiv@b+2)^0,7,c
  5444   001CF8  EF80  F00E         	goto	u2221
  5445   001CFC  EF82  F00E         	goto	u2220
  5446   001D00                     u2221:
  5447   001D00  EF66  F00E         	goto	l2183
  5448   001D04                     u2220:
  5449   001D04  0E00               	movlw	0
  5450   001D06  6E19               	movwf	___fldiv@aexp^0,c
  5451   001D08  AE17               	btfss	(___fldiv@grs+3)^0,7,c
  5452   001D0A  EF89  F00E         	goto	u2231
  5453   001D0E  EF8B  F00E         	goto	u2230
  5454   001D12                     u2231:
  5455   001D12  EFAF  F00E         	goto	l617
  5456   001D16                     u2230:
  5457   001D16  0EFF               	movlw	255
  5458   001D18  1414               	andwf	___fldiv@grs^0,w,c
  5459   001D1A  6E09               	movwf	??___fldiv^0,c
  5460   001D1C  0EFF               	movlw	255
  5461   001D1E  1415               	andwf	(___fldiv@grs+1)^0,w,c
  5462   001D20  6E0A               	movwf	(??___fldiv+1)^0,c
  5463   001D22  0EFF               	movlw	255
  5464   001D24  1416               	andwf	(___fldiv@grs+2)^0,w,c
  5465   001D26  6E0B               	movwf	(??___fldiv+2)^0,c
  5466   001D28  0E7F               	movlw	127
  5467   001D2A  1417               	andwf	(___fldiv@grs+3)^0,w,c
  5468   001D2C  6E0C               	movwf	(??___fldiv+3)^0,c
  5469   001D2E  5009               	movf	??___fldiv^0,w,c
  5470   001D30  100A               	iorwf	(??___fldiv+1)^0,w,c
  5471   001D32  100B               	iorwf	(??___fldiv+2)^0,w,c
  5472   001D34  100C               	iorwf	(??___fldiv+3)^0,w,c
  5473   001D36  B4D8               	btfsc	status,2,c
  5474   001D38  EFA0  F00E         	goto	u2241
  5475   001D3C  EFA2  F00E         	goto	u2240
  5476   001D40                     u2241:
  5477   001D40  EFA6  F00E         	goto	l618
  5478   001D44                     u2240:
  5479   001D44                     l2197:
  5480   001D44  0E01               	movlw	1
  5481   001D46  6E19               	movwf	___fldiv@aexp^0,c
  5482   001D48  EFAF  F00E         	goto	l617
  5483   001D4C                     l618:
  5484   001D4C  A001               	btfss	___fldiv@b^0,0,c
  5485   001D4E  EFAB  F00E         	goto	u2251
  5486   001D52  EFAD  F00E         	goto	u2250
  5487   001D56                     u2251:
  5488   001D56  EFAF  F00E         	goto	l617
  5489   001D5A                     u2250:
  5490   001D5A  EFA2  F00E         	goto	l2197
  5491   001D5E                     l617:
  5492   001D5E  5019               	movf	___fldiv@aexp^0,w,c
  5493   001D60  B4D8               	btfsc	status,2,c
  5494   001D62  EFB5  F00E         	goto	u2261
  5495   001D66  EFB7  F00E         	goto	u2260
  5496   001D6A                     u2261:
  5497   001D6A  EFDB  F00E         	goto	l2209
  5498   001D6E                     u2260:
  5499   001D6E  0E01               	movlw	1
  5500   001D70  2601               	addwf	___fldiv@b^0,f,c
  5501   001D72  0E00               	movlw	0
  5502   001D74  2202               	addwfc	(___fldiv@b+1)^0,f,c
  5503   001D76  2203               	addwfc	(___fldiv@b+2)^0,f,c
  5504   001D78  2204               	addwfc	(___fldiv@b+3)^0,f,c
  5505   001D7A  A004               	btfss	(___fldiv@b+3)^0,0,c
  5506   001D7C  EFC2  F00E         	goto	u2271
  5507   001D80  EFC4  F00E         	goto	u2270
  5508   001D84                     u2271:
  5509   001D84  EFDB  F00E         	goto	l2209
  5510   001D88                     u2270:
  5511   001D88  C001  F009         	movff	___fldiv@b,??___fldiv
  5512   001D8C  C002  F00A         	movff	___fldiv@b+1,??___fldiv+1
  5513   001D90  C003  F00B         	movff	___fldiv@b+2,??___fldiv+2
  5514   001D94  C004  F00C         	movff	___fldiv@b+3,??___fldiv+3
  5515   001D98  340C               	rlcf	(??___fldiv+3)^0,w,c
  5516   001D9A  320C               	rrcf	(??___fldiv+3)^0,f,c
  5517   001D9C  320B               	rrcf	(??___fldiv+2)^0,f,c
  5518   001D9E  320A               	rrcf	(??___fldiv+1)^0,f,c
  5519   001DA0  3209               	rrcf	??___fldiv^0,f,c
  5520   001DA2  C009  F001         	movff	??___fldiv,___fldiv@b
  5521   001DA6  C00A  F002         	movff	??___fldiv+1,___fldiv@b+1
  5522   001DAA  C00B  F003         	movff	??___fldiv+2,___fldiv@b+2
  5523   001DAE  C00C  F004         	movff	??___fldiv+3,___fldiv@b+3
  5524   001DB2  4A12               	infsnz	___fldiv@new_exp^0,f,c
  5525   001DB4  2A13               	incf	(___fldiv@new_exp+1)^0,f,c
  5526   001DB6                     l2209:
  5527   001DB6  BE13               	btfsc	(___fldiv@new_exp+1)^0,7,c
  5528   001DB8  EFE6  F00E         	goto	u2281
  5529   001DBC  5013               	movf	(___fldiv@new_exp+1)^0,w,c
  5530   001DBE  E108               	bnz	u2280
  5531   001DC0  2812               	incf	___fldiv@new_exp^0,w,c
  5532   001DC2  A0D8               	btfss	status,0,c
  5533   001DC4  EFE6  F00E         	goto	u2281
  5534   001DC8  EFE8  F00E         	goto	u2280
  5535   001DCC                     u2281:
  5536   001DCC  EFF3  F00E         	goto	l2213
  5537   001DD0                     u2280:
  5538   001DD0  0E00               	movlw	0
  5539   001DD2  6E13               	movwf	(___fldiv@new_exp+1)^0,c
  5540   001DD4  6812               	setf	___fldiv@new_exp^0,c
  5541   001DD6  0E00               	movlw	0
  5542   001DD8  6E01               	movwf	___fldiv@b^0,c
  5543   001DDA  0E00               	movlw	0
  5544   001DDC  6E02               	movwf	(___fldiv@b+1)^0,c
  5545   001DDE  0E00               	movlw	0
  5546   001DE0  6E03               	movwf	(___fldiv@b+2)^0,c
  5547   001DE2  0E00               	movlw	0
  5548   001DE4  6E04               	movwf	(___fldiv@b+3)^0,c
  5549   001DE6                     l2213:
  5550   001DE6  BE13               	btfsc	(___fldiv@new_exp+1)^0,7,c
  5551   001DE8  EF00  F00F         	goto	u2290
  5552   001DEC  5013               	movf	(___fldiv@new_exp+1)^0,w,c
  5553   001DEE  E106               	bnz	u2291
  5554   001DF0  0412               	decf	___fldiv@new_exp^0,w,c
  5555   001DF2  B0D8               	btfsc	status,0,c
  5556   001DF4  EFFE  F00E         	goto	u2291
  5557   001DF8  EF00  F00F         	goto	u2290
  5558   001DFC                     u2291:
  5559   001DFC  EF0E  F00F         	goto	l2217
  5560   001E00                     u2290:
  5561   001E00  0E00               	movlw	0
  5562   001E02  6E13               	movwf	(___fldiv@new_exp+1)^0,c
  5563   001E04  0E00               	movlw	0
  5564   001E06  6E12               	movwf	___fldiv@new_exp^0,c
  5565   001E08  0E00               	movlw	0
  5566   001E0A  6E01               	movwf	___fldiv@b^0,c
  5567   001E0C  0E00               	movlw	0
  5568   001E0E  6E02               	movwf	(___fldiv@b+1)^0,c
  5569   001E10  0E00               	movlw	0
  5570   001E12  6E03               	movwf	(___fldiv@b+2)^0,c
  5571   001E14  0E00               	movlw	0
  5572   001E16  6E04               	movwf	(___fldiv@b+3)^0,c
  5573   001E18  0E00               	movlw	0
  5574   001E1A  6E11               	movwf	___fldiv@sign^0,c
  5575   001E1C                     l2217:
  5576   001E1C  C012  F018         	movff	___fldiv@new_exp,___fldiv@bexp
  5577   001E20  A018               	btfss	___fldiv@bexp^0,0,c
  5578   001E22  EF15  F00F         	goto	u2301
  5579   001E26  EF17  F00F         	goto	u2300
  5580   001E2A                     u2301:
  5581   001E2A  EF1A  F00F         	goto	l2223
  5582   001E2E                     u2300:
  5583   001E2E  8E03               	bsf	(___fldiv@b+2)^0,7,c
  5584   001E30  EF1B  F00F         	goto	l2225
  5585   001E34                     l2223:
  5586   001E34  9E03               	bcf	(___fldiv@b+2)^0,7,c
  5587   001E36                     l2225:
  5588   001E36  90D8               	bcf	status,0,c
  5589   001E38  3018               	rrcf	___fldiv@bexp^0,w,c
  5590   001E3A  6E04               	movwf	(___fldiv@b+3)^0,c
  5591   001E3C  EFD1  F00D         	goto	l2139
  5592   001E40                     l604:
  5593   001E40  0012               	return		;funcret
  5594   001E42                     __end_of___fldiv:
  5595                           	callstack 0
  5596                           
  5597 ;; *************** function _contar_unos *****************
  5598 ;; Defined at:
  5599 ;;		line 11 in file "main.c"
  5600 ;; Parameters:    Size  Location     Type
  5601 ;;  arreglo         2    0[COMRAM] PTR int 
  5602 ;;		 -> main@arreglo(200), 
  5603 ;;  num_elemento    2    2[COMRAM] int 
  5604 ;; Auto vars:     Size  Location     Type
  5605 ;;  valor           2   10[COMRAM] int 
  5606 ;;  i               2    8[COMRAM] int 
  5607 ;;  contador        2    6[COMRAM] int 
  5608 ;; Return value:  Size  Location     Type
  5609 ;;                  2    0[COMRAM] int 
  5610 ;; Registers used:
  5611 ;;		wreg, fsr2l, fsr2h, status,2, status,0
  5612 ;; Tracked objects:
  5613 ;;		On entry : 0/0
  5614 ;;		On exit  : 0/0
  5615 ;;		Unchanged: 0/0
  5616 ;; Data sizes:     COMRAM   BANK0   BANK1   BANK2   BANK3   BANK4   BANK5   BANK6   BANK7
  5617 ;;      Params:         4       0       0       0       0       0       0       0       0
  5618 ;;      Locals:         6       0       0       0       0       0       0       0       0
  5619 ;;      Temps:          2       0       0       0       0       0       0       0       0
  5620 ;;      Totals:        12       0       0       0       0       0       0       0       0
  5621 ;;Total ram usage:       12 bytes
  5622 ;; Hardware stack levels used: 1
  5623 ;; This function calls:
  5624 ;;		Nothing
  5625 ;; This function is called by:
  5626 ;;		_main
  5627 ;; This function uses a non-reentrant model
  5628 ;;
  5629                           
  5630                           	psect	text22
  5631   002668                     __ptext22:
  5632                           	callstack 0
  5633   002668                     _contar_unos:
  5634                           	callstack 30
  5635   002668                     
  5636                           ;main.c: 12:     int contador = 0;
  5637   002668  0E00               	movlw	0
  5638   00266A  6E08               	movwf	(contar_unos@contador+1)^0,c
  5639   00266C  0E00               	movlw	0
  5640   00266E  6E07               	movwf	contar_unos@contador^0,c
  5641                           
  5642                           ;main.c: 14:     for (int i = 0; i <= num_elementos; i++) {
  5643   002670  0E00               	movlw	0
  5644   002672  6E0A               	movwf	(contar_unos@i+1)^0,c
  5645   002674  0E00               	movlw	0
  5646   002676  6E09               	movwf	contar_unos@i^0,c
  5647   002678  EF68  F013         	goto	l2839
  5648   00267C                     l2829:
  5649                           
  5650                           ;main.c: 15:         int valor = arreglo[i];
  5651   00267C  90D8               	bcf	status,0,c
  5652   00267E  3409               	rlcf	contar_unos@i^0,w,c
  5653   002680  6ED9               	movwf	fsr2l,c
  5654   002682  340A               	rlcf	(contar_unos@i+1)^0,w,c
  5655   002684  6EDA               	movwf	fsr2h,c
  5656   002686  5001               	movf	contar_unos@arreglo^0,w,c
  5657   002688  26D9               	addwf	fsr2l,f,c
  5658   00268A  5002               	movf	(contar_unos@arreglo+1)^0,w,c
  5659   00268C  22DA               	addwfc	fsr2h,f,c
  5660   00268E  CFDE F00B          	movff	postinc2,contar_unos@valor
  5661   002692  CFDD F00C          	movff	postdec2,contar_unos@valor+1
  5662                           
  5663                           ;main.c: 17:         while (valor != 0) {
  5664   002696  EF5D  F013         	goto	l2835
  5665   00269A                     l8:
  5666                           
  5667                           ;main.c: 18:             if (valor & 1) {
  5668   00269A  A00B               	btfss	contar_unos@valor^0,0,c
  5669   00269C  EF52  F013         	goto	u3231
  5670   0026A0  EF54  F013         	goto	u3230
  5671   0026A4                     u3231:
  5672   0026A4  EF56  F013         	goto	l2833
  5673   0026A8                     u3230:
  5674   0026A8                     
  5675                           ;main.c: 19:                 contador++;
  5676   0026A8  4A07               	infsnz	contar_unos@contador^0,f,c
  5677   0026AA  2A08               	incf	(contar_unos@contador+1)^0,f,c
  5678   0026AC                     l2833:
  5679                           
  5680                           ;main.c: 21:             valor = valor >> 1;
  5681   0026AC  340C               	rlcf	(contar_unos@valor+1)^0,w,c
  5682   0026AE  300C               	rrcf	(contar_unos@valor+1)^0,w,c
  5683   0026B0  6E05               	movwf	??_contar_unos^0,c
  5684   0026B2  300B               	rrcf	contar_unos@valor^0,w,c
  5685   0026B4  6E0B               	movwf	contar_unos@valor^0,c
  5686   0026B6  C005  F00C         	movff	??_contar_unos,contar_unos@valor+1
  5687   0026BA                     l2835:
  5688                           
  5689                           ;main.c: 17:         while (valor != 0) {
  5690   0026BA  500B               	movf	contar_unos@valor^0,w,c
  5691   0026BC  100C               	iorwf	(contar_unos@valor+1)^0,w,c
  5692   0026BE  A4D8               	btfss	status,2,c
  5693   0026C0  EF64  F013         	goto	u3241
  5694   0026C4  EF66  F013         	goto	u3240
  5695   0026C8                     u3241:
  5696   0026C8  EF4D  F013         	goto	l8
  5697   0026CC                     u3240:
  5698   0026CC                     
  5699                           ;main.c: 23:     }
  5700   0026CC  4A09               	infsnz	contar_unos@i^0,f,c
  5701   0026CE  2A0A               	incf	(contar_unos@i+1)^0,f,c
  5702   0026D0                     l2839:
  5703   0026D0  5009               	movf	contar_unos@i^0,w,c
  5704   0026D2  5C03               	subwf	contar_unos@num_elementos^0,w,c
  5705   0026D4  5004               	movf	(contar_unos@num_elementos+1)^0,w,c
  5706   0026D6  0A80               	xorlw	128
  5707   0026D8  6E05               	movwf	??_contar_unos^0,c
  5708   0026DA  500A               	movf	(contar_unos@i+1)^0,w,c
  5709   0026DC  0A80               	xorlw	128
  5710   0026DE  5805               	subwfb	??_contar_unos^0,w,c
  5711   0026E0  B0D8               	btfsc	status,0,c
  5712   0026E2  EF75  F013         	goto	u3251
  5713   0026E6  EF77  F013         	goto	u3250
  5714   0026EA                     u3251:
  5715   0026EA  EF3E  F013         	goto	l2829
  5716   0026EE                     u3250:
  5717   0026EE                     
  5718                           ;main.c: 25:     return contador;
  5719   0026EE  C007  F001         	movff	contar_unos@contador,?_contar_unos
  5720   0026F2  C008  F002         	movff	contar_unos@contador+1,?_contar_unos+1
  5721   0026F6  0012               	return		;funcret
  5722   0026F8                     __end_of_contar_unos:
  5723                           	callstack 0
  5724                           
  5725                           	psect	rparam
  5726   000000                     
  5727                           	psect	idloc
  5728                           
  5729                           ;Config register IDLOC0 @ 0x200000
  5730                           ;	unspecified, using default values
  5731   200000                     	org	2097152
  5732   200000  FF                 	db	255
  5733                           
  5734                           ;Config register IDLOC1 @ 0x200001
  5735                           ;	unspecified, using default values
  5736   200001                     	org	2097153
  5737   200001  FF                 	db	255
  5738                           
  5739                           ;Config register IDLOC2 @ 0x200002
  5740                           ;	unspecified, using default values
  5741   200002                     	org	2097154
  5742   200002  FF                 	db	255
  5743                           
  5744                           ;Config register IDLOC3 @ 0x200003
  5745                           ;	unspecified, using default values
  5746   200003                     	org	2097155
  5747   200003  FF                 	db	255
  5748                           
  5749                           ;Config register IDLOC4 @ 0x200004
  5750                           ;	unspecified, using default values
  5751   200004                     	org	2097156
  5752   200004  FF                 	db	255
  5753                           
  5754                           ;Config register IDLOC5 @ 0x200005
  5755                           ;	unspecified, using default values
  5756   200005                     	org	2097157
  5757   200005  FF                 	db	255
  5758                           
  5759                           ;Config register IDLOC6 @ 0x200006
  5760                           ;	unspecified, using default values
  5761   200006                     	org	2097158
  5762   200006  FF                 	db	255
  5763                           
  5764                           ;Config register IDLOC7 @ 0x200007
  5765                           ;	unspecified, using default values
  5766   200007                     	org	2097159
  5767   200007  FF                 	db	255
  5768                           
  5769                           	psect	config
  5770                           
  5771                           ;Config register CONFIG1L @ 0x300000
  5772                           ;	unspecified, using default values
  5773                           ;	PLL Selection
  5774                           ;	PLLSEL = 0x0, unprogrammed default
  5775                           ;	PLL Enable Configuration bit
  5776                           ;	CFGPLLEN = 0x0, unprogrammed default
  5777                           ;	CPU System Clock Postscaler
  5778                           ;	CPUDIV = 0x0, unprogrammed default
  5779                           ;	Low Speed USB mode with 48 MHz system clock
  5780                           ;	LS48MHZ = 0x0, unprogrammed default
  5781   300000                     	org	3145728
  5782   300000  00                 	db	0
  5783                           
  5784                           ;Config register CONFIG1H @ 0x300001
  5785                           ;	unspecified, using default values
  5786                           ;	Oscillator Selection
  5787                           ;	FOSC = 0x5, unprogrammed default
  5788                           ;	Primary Oscillator Shutdown
  5789                           ;	PCLKEN = 0x1, unprogrammed default
  5790                           ;	Fail-Safe Clock Monitor
  5791                           ;	FCMEN = 0x0, unprogrammed default
  5792                           ;	Internal/External Oscillator Switchover
  5793                           ;	IESO = 0x0, unprogrammed default
  5794   300001                     	org	3145729
  5795   300001  25                 	db	37
  5796                           
  5797                           ;Config register CONFIG2L @ 0x300002
  5798                           ;	unspecified, using default values
  5799                           ;	Power-up Timer Enable
  5800                           ;	nPWRTEN = 0x1, unprogrammed default
  5801                           ;	Brown-out Reset Enable
  5802                           ;	BOREN = 0x3, unprogrammed default
  5803                           ;	Brown-out Reset Voltage
  5804                           ;	BORV = 0x3, unprogrammed default
  5805                           ;	Low-Power Brown-out Reset
  5806                           ;	nLPBOR = 0x1, unprogrammed default
  5807   300002                     	org	3145730
  5808   300002  5F                 	db	95
  5809                           
  5810                           ;Config register CONFIG2H @ 0x300003
  5811                           ;	unspecified, using default values
  5812                           ;	Watchdog Timer Enable bits
  5813                           ;	WDTEN = 0x3, unprogrammed default
  5814                           ;	Watchdog Timer Postscaler
  5815                           ;	WDTPS = 0xF, unprogrammed default
  5816   300003                     	org	3145731
  5817   300003  3F                 	db	63
  5818                           
  5819                           ; Padding undefined space
  5820   300004                     	org	3145732
  5821   300004  FF                 	db	255
  5822                           
  5823                           ;Config register CONFIG3H @ 0x300005
  5824                           ;	unspecified, using default values
  5825                           ;	CCP2 MUX bit
  5826                           ;	CCP2MX = 0x1, unprogrammed default
  5827                           ;	PORTB A/D Enable bit
  5828                           ;	PBADEN = 0x1, unprogrammed default
  5829                           ;	Timer3 Clock Input MUX bit
  5830                           ;	T3CMX = 0x1, unprogrammed default
  5831                           ;	SDO Output MUX bit
  5832                           ;	SDOMX = 0x1, unprogrammed default
  5833                           ;	Master Clear Reset Pin Enable
  5834                           ;	MCLRE = 0x1, unprogrammed default
  5835   300005                     	org	3145733
  5836   300005  D3                 	db	211
  5837                           
  5838                           ;Config register CONFIG4L @ 0x300006
  5839                           ;	unspecified, using default values
  5840                           ;	Stack Full/Underflow Reset
  5841                           ;	STVREN = 0x1, unprogrammed default
  5842                           ;	Single-Supply ICSP Enable bit
  5843                           ;	LVP = 0x1, unprogrammed default
  5844                           ;	Dedicated In-Circuit Debug/Programming Port Enable
  5845                           ;	ICPRT = 0x0, unprogrammed default
  5846                           ;	Extended Instruction Set Enable bit
  5847                           ;	XINST = 0x0, unprogrammed default
  5848                           ;	Background Debugger Enable bit
  5849                           ;	DEBUG = 0x1, unprogrammed default
  5850   300006                     	org	3145734
  5851   300006  85                 	db	133
  5852                           
  5853                           ; Padding undefined space
  5854   300007                     	org	3145735
  5855   300007  FF                 	db	255
  5856                           
  5857                           ;Config register CONFIG5L @ 0x300008
  5858                           ;	unspecified, using default values
  5859                           ;	Block 0 Code Protect
  5860                           ;	CP0 = 0x1, unprogrammed default
  5861                           ;	Block 1 Code Protect
  5862                           ;	CP1 = 0x1, unprogrammed default
  5863                           ;	Block 2 Code Protect
  5864                           ;	CP2 = 0x1, unprogrammed default
  5865                           ;	Block 3 Code Protect
  5866                           ;	CP3 = 0x1, unprogrammed default
  5867   300008                     	org	3145736
  5868   300008  0F                 	db	15
  5869                           
  5870                           ;Config register CONFIG5H @ 0x300009
  5871                           ;	unspecified, using default values
  5872                           ;	Boot Block Code Protect
  5873                           ;	CPB = 0x1, unprogrammed default
  5874                           ;	Data EEPROM Code Protect
  5875                           ;	CPD = 0x1, unprogrammed default
  5876   300009                     	org	3145737
  5877   300009  C0                 	db	192
  5878                           
  5879                           ;Config register CONFIG6L @ 0x30000A
  5880                           ;	unspecified, using default values
  5881                           ;	Block 0 Write Protect
  5882                           ;	WRT0 = 0x1, unprogrammed default
  5883                           ;	Block 1 Write Protect
  5884                           ;	WRT1 = 0x1, unprogrammed default
  5885                           ;	Block 2 Write Protect
  5886                           ;	WRT2 = 0x1, unprogrammed default
  5887                           ;	Block 3 Write Protect
  5888                           ;	WRT3 = 0x1, unprogrammed default
  5889   30000A                     	org	3145738
  5890   30000A  0F                 	db	15
  5891                           
  5892                           ;Config register CONFIG6H @ 0x30000B
  5893                           ;	unspecified, using default values
  5894                           ;	Configuration Registers Write Protect
  5895                           ;	WRTC = 0x1, unprogrammed default
  5896                           ;	Boot Block Write Protect
  5897                           ;	WRTB = 0x1, unprogrammed default
  5898                           ;	Data EEPROM Write Protect
  5899                           ;	WRTD = 0x1, unprogrammed default
  5900   30000B                     	org	3145739
  5901   30000B  E0                 	db	224
  5902                           
  5903                           ;Config register CONFIG7L @ 0x30000C
  5904                           ;	unspecified, using default values
  5905                           ;	Block 0 Table Read Protect
  5906                           ;	EBTR0 = 0x1, unprogrammed default
  5907                           ;	Block 1 Table Read Protect
  5908                           ;	EBTR1 = 0x1, unprogrammed default
  5909                           ;	Block 2 Table Read Protect
  5910                           ;	EBTR2 = 0x1, unprogrammed default
  5911                           ;	Block 3 Table Read Protect
  5912                           ;	EBTR3 = 0x1, unprogrammed default
  5913   30000C                     	org	3145740
  5914   30000C  0F                 	db	15
  5915                           
  5916                           ;Config register CONFIG7H @ 0x30000D
  5917                           ;	unspecified, using default values
  5918                           ;	Boot Block Table Read Protect
  5919                           ;	EBTRB = 0x1, unprogrammed default
  5920   30000D                     	org	3145741
  5921   30000D  40                 	db	64
  5922                           tosu	equ	0xFFF
  5923                           tosh	equ	0xFFE
  5924                           tosl	equ	0xFFD
  5925                           stkptr	equ	0xFFC
  5926                           pclatu	equ	0xFFB
  5927                           pclath	equ	0xFFA
  5928                           pcl	equ	0xFF9
  5929                           tblptru	equ	0xFF8
  5930                           tblptrh	equ	0xFF7
  5931                           tblptrl	equ	0xFF6
  5932                           tablat	equ	0xFF5
  5933                           prodh	equ	0xFF4
  5934                           prodl	equ	0xFF3
  5935                           indf0	equ	0xFEF
  5936                           postinc0	equ	0xFEE
  5937                           postdec0	equ	0xFED
  5938                           preinc0	equ	0xFEC
  5939                           plusw0	equ	0xFEB
  5940                           fsr0h	equ	0xFEA
  5941                           fsr0l	equ	0xFE9
  5942                           wreg	equ	0xFE8
  5943                           indf1	equ	0xFE7
  5944                           postinc1	equ	0xFE6
  5945                           postdec1	equ	0xFE5
  5946                           preinc1	equ	0xFE4
  5947                           plusw1	equ	0xFE3
  5948                           fsr1h	equ	0xFE2
  5949                           fsr1l	equ	0xFE1
  5950                           bsr	equ	0xFE0
  5951                           indf2	equ	0xFDF
  5952                           postinc2	equ	0xFDE
  5953                           postdec2	equ	0xFDD
  5954                           preinc2	equ	0xFDC
  5955                           plusw2	equ	0xFDB
  5956                           fsr2h	equ	0xFDA
  5957                           fsr2l	equ	0xFD9
  5958                           status	equ	0xFD8

Data Sizes:
    Strings     11
    Constant    0
    Data        0
    BSS         93
    Persistent  0
    Stack       0

Auto Spaces:
    Space          Size  Autos    Used
    COMRAM           95     72      85
    BANK0           160     47     127
    BANK1           256    204     204
    BANK2           256      0       0
    BANK3           256      0       0
    BANK4           256      0       0
    BANK5           256      0       0
    BANK6           256      0       0
    BANK7           256      0       0

Pointer List with Targets:

    contar_unos@arreglo	PTR int  size(2) Largest target is 200
		 -> main@arreglo(BANK1[200]), 

    efgtoa@fp	PTR struct _IO_FILE size(2) Largest target is 0
		 -> NULL(NULL[0]), 

    fputc@fp	PTR struct _IO_FILE size(2) Largest target is 0
		 -> NULL(NULL[0]), 

    fputc@fp$.$buffer	PTR unsigned char  size(2) Largest target is 0

    fputc@fp$.$source	PTR const unsigned char  size(2) Largest target is 0

    fputs@fp	PTR struct _IO_FILE size(2) Largest target is 0
		 -> NULL(NULL[0]), 

    fputs@s	PTR const unsigned char  size(1) Largest target is 80
		 -> dbuf(BANK0[80]), 

    memcpy@d	PTR unsigned char  size(1) Largest target is 80
		 -> dbuf(BANK0[80]), 

    memcpy@d1	PTR void  size(1) Largest target is 80
		 -> dbuf(BANK0[80]), 

    memcpy@s	PTR const unsigned char  size(1) Largest target is 80
		 -> dbuf(BANK0[80]), 

    memcpy@s1	PTR const void  size(1) Largest target is 80
		 -> dbuf(BANK0[80]), 

    pad@buf	PTR unsigned char  size(1) Largest target is 80
		 -> dbuf(BANK0[80]), 

    pad@fp	PTR struct _IO_FILE size(2) Largest target is 0
		 -> NULL(NULL[0]), 

    printf@ap	PTR void [1] size(1) Largest target is 2
		 -> ?_printf(BANK0[2]), 

    printf@fmt	PTR const unsigned char  size(1) Largest target is 3
		 -> STR_1(CODE[3]), 

    S486$buffer	PTR unsigned char  size(2) Largest target is 0

    S486$source	PTR const unsigned char  size(2) Largest target is 0

    sp__memcpy	PTR void  size(1) Largest target is 80
		 -> dbuf(BANK0[80]), 

    sp__strcpy	PTR unsigned char  size(1) Largest target is 80
		 -> dbuf(BANK0[80]), 

    strcpy@d	PTR unsigned char  size(1) Largest target is 80
		 -> dbuf(BANK0[80]), 

    strcpy@dest	PTR unsigned char  size(1) Largest target is 80
		 -> dbuf(BANK0[80]), 

    strcpy@src	PTR const unsigned char  size(1) Largest target is 4
		 -> STR_2(CODE[4]), STR_5(CODE[4]), 

    vfpfcnvrt@ap	PTR PTR void  size(1) Largest target is 1
		 -> printf@ap(COMRAM[1]), 

    vfpfcnvrt@cp	PTR unsigned char  size(1) Largest target is 3
		 -> STR_1(CODE[3]), 

    vfpfcnvrt@fmt	PTR PTR unsigned char  size(1) Largest target is 1
		 -> vfprintf@cfmt(COMRAM[1]), 

    vfpfcnvrt@fp	PTR struct _IO_FILE size(2) Largest target is 0
		 -> NULL(NULL[0]), 

    vfprintf@ap	PTR PTR void  size(1) Largest target is 1
		 -> printf@ap(COMRAM[1]), 

    vfprintf@cfmt	PTR unsigned char  size(1) Largest target is 3
		 -> STR_1(CODE[3]), 

    vfprintf@fmt	PTR const unsigned char  size(1) Largest target is 3
		 -> STR_1(CODE[3]), 

    vfprintf@fp	PTR struct _IO_FILE size(2) Largest target is 0
		 -> NULL(NULL[0]), 


Critical Paths under _main in COMRAM

    _main->_printf
    _printf->_vfprintf
    _vfprintf->_vfpfcnvrt
    _vfpfcnvrt->_efgtoa
    _efgtoa->_floorf
    _pad->_fputs
    _fputs->_fputc
    _floorf->___fldiv
    ___flsub->___flmul
    ___flge->___flmul

Critical Paths under _main in BANK0

    _main->_printf
    _vfpfcnvrt->_efgtoa

Critical Paths under _main in BANK1

    None.

Critical Paths under _main in BANK2

    None.

Critical Paths under _main in BANK3

    None.

Critical Paths under _main in BANK4

    None.

Critical Paths under _main in BANK5

    None.

Critical Paths under _main in BANK6

    None.

Critical Paths under _main in BANK7

    None.

Call Graph Tables:

 ---------------------------------------------------------------------------------
 (Depth) Function   	        Calls       Base Space   Used Autos Params    Refs
 ---------------------------------------------------------------------------------
 (0) _main                                               206   206      0   20852
                                             70 COMRAM     2     2      0
                                              0 BANK1    204   204      0
                        _contar_unos
                             _printf
 ---------------------------------------------------------------------------------
 (1) _printf                                               6     3      3   20352
                                             69 COMRAM     1     1      0
                                             44 BANK0      3     0      3
                           _vfprintf
 ---------------------------------------------------------------------------------
 (2) _vfprintf                                             5     1      4   20220
                                             64 COMRAM     5     1      4
                          _vfpfcnvrt
 ---------------------------------------------------------------------------------
 (3) _vfpfcnvrt                                           12     8      4   19870
                                             53 COMRAM    11     7      4
                             _efgtoa
                              _fputc
 ---------------------------------------------------------------------------------
 (4) _efgtoa                                              53    46      7   18535
                                             45 COMRAM     8     1      7
                                              0 BANK0     44    44      0
                            ___fladd
                            ___fldiv
                             ___fleq
                             ___flge
                            ___flmul
                            ___flneg
                            ___flsub
                            ___fltol
                      ___fpclassifyf
                             _floorf
                               _labs
                             _memcpy
                                _pad
                             _strcpy
 ---------------------------------------------------------------------------------
 (5) _strcpy                                               4     2      2     377
                                              0 COMRAM     4     2      2
 ---------------------------------------------------------------------------------
 (5) _pad                                                  8     3      5    2432
                                             15 COMRAM     8     3      5
                              _fputc
                              _fputs
 ---------------------------------------------------------------------------------
 (6) _fputs                                                6     3      3     931
                                              9 COMRAM     6     3      3
                              _fputc
 ---------------------------------------------------------------------------------
 (4) _fputc                                                9     5      4     682
                                              0 COMRAM     9     5      4
                              _putch
 ---------------------------------------------------------------------------------
 (5) _putch                                                1     1      0       0
 ---------------------------------------------------------------------------------
 (5) _memcpy                                               7     3      4     371
                                              0 COMRAM     7     3      4
 ---------------------------------------------------------------------------------
 (5) _labs                                                 8     4      4     294
                                              0 COMRAM     8     4      4
 ---------------------------------------------------------------------------------
 (5) _floorf                                              20    16      4     490
                                             25 COMRAM    20    16      4
                            ___fldiv (ARG)
 ---------------------------------------------------------------------------------
 (5) ___fpclassifyf                                       14    10      4     287
                                              0 COMRAM    14    10      4
 ---------------------------------------------------------------------------------
 (5) ___fltol                                             10     6      4     457
                                              0 COMRAM    10     6      4
 ---------------------------------------------------------------------------------
 (5) ___flsub                                              8     0      8    2889
                                             25 COMRAM     8     0      8
                            ___fladd
                            ___flmul (ARG)
 ---------------------------------------------------------------------------------
 (6) ___fladd                                             16     8      8    2414
                                              0 COMRAM    16     8      8
 ---------------------------------------------------------------------------------
 (5) ___flneg                                              4     0      4     121
                                              0 COMRAM     4     0      4
 ---------------------------------------------------------------------------------
 (5) ___flmul                                             25    17      8    2504
                                              0 COMRAM    25    17      8
 ---------------------------------------------------------------------------------
 (5) ___flge                                              12     4      8     790
                                             25 COMRAM    12     4      8
                            ___flmul (ARG)
 ---------------------------------------------------------------------------------
 (5) ___fleq                                              12     4      8     646
                                              0 COMRAM    12     4      8
 ---------------------------------------------------------------------------------
 (5) ___fldiv                                             25    17      8    2007
                                              0 COMRAM    25    17      8
 ---------------------------------------------------------------------------------
 (1) _contar_unos                                         12     8      4     334
                                              0 COMRAM    12     8      4
 ---------------------------------------------------------------------------------
 Estimated maximum stack depth 6
 ---------------------------------------------------------------------------------

 Call Graph Graphs:

 _main (ROOT)
   _contar_unos
   _printf
     _vfprintf
       _vfpfcnvrt
         _efgtoa
           ___fladd
           ___fldiv
           ___fleq
           ___flge
             ___flmul (ARG)
           ___flmul
           ___flneg
           ___flsub
             ___fladd
             ___flmul (ARG)
           ___fltol
           ___fpclassifyf
           _floorf
             ___fldiv (ARG)
           _labs
           _memcpy
           _pad
             _fputc
               _putch
             _fputs
               _fputc
           _strcpy
         _fputc

 Address spaces:
Name               Size   Autos  Total    Cost      Usage
BIGRAM             7FF      0       0      22        0.0%
EEDATA             100      0       0       0        0.0%
BITBANK7           100      0       0      21        0.0%
BANK7              100      0       0      18        0.0%
BITBANK6           100      0       0      16        0.0%
BANK6              100      0       0      17        0.0%
BITBANK5           100      0       0      14        0.0%
BANK5              100      0       0      15        0.0%
BITBANK4           100      0       0      12        0.0%
BANK4              100      0       0      13        0.0%
BITBANK3           100      0       0      10        0.0%
BANK3              100      0       0      11        0.0%
BITBANK2           100      0       0       8        0.0%
BANK2              100      0       0       9        0.0%
BITBANK1           100      0       0       6        0.0%
BANK1              100     CC      CC       7       79.7%
BITBIGSFR           AD      0       0      19        0.0%
BITBANK0            A0      0       0       4        0.0%
BANK0               A0     2F      7F       5       79.4%
BITCOMRAM           5F      0       0       0        0.0%
COMRAM              5F     48      55       1       89.5%
BIGSFR               0      0       0     200        0.0%
BITSFR_1             0      0       0     200        0.0%
SFR_1                0      0       0     200        0.0%
BITSFR               0      0       0     200        0.0%
SFR                  0      0       0     200        0.0%
STACK                0      0       0       2        0.0%
NULL                 0      0       0       0        0.0%
ABS                  0      0     1A0      20        0.0%
DATA                 0      0     1A0       3        0.0%
CODE                 0      0       0       0        0.0%


Microchip Technology PIC18 Macro Assembler V2.46 build 20240104201356 
Symbol Table                                                                                   Sat May 11 22:18:08 2024

                       l8 269A              ___fldiv@aexp 0019              ___fldiv@bexp 0018  
            ___fldiv@sign 0011                        l11 26EE                        l12 26F6  
                      l19 2766                       l319 22F0                       l281 2666  
                     l604 1E40                       l292 23F4                       l700 29D6  
                     l606 1CA0                       l550 13AC                       l615 1CE6  
                     l287 23AE                       l551 139A                       l640 1AA6  
                     l296 2968                       l552 1360                       l617 1D5E  
                     l609 1C64                       l618 1D4C                       l802 21EA  
                     l643 1938                       l731 27D2                       l636 1742  
                     l653 1A68                       l645 19B0                       l646 199E  
                     l742 11BC                       l567 14C6                       l559 167C  
                     l727 2780                       l576 1596                       l592 286E  
                     l840 2828                       l577 1584                       l745 0B88  
                     l809 28B0                       l826 2052                       l819 24F2  
                     l747 09CE                       l829 1F96                       l846 2930  
                     l775 0FD2                       l858 25BC                       l866 28F0  
                     l875 299A                       l869 29D8              ?_contar_unos 0001  
                     _pad 276A                       wreg 0FE8              ___flmul@aexp 0012  
            ___flmul@bexp 0013              ___flmul@sign 000D              ___flmul@temp 0018  
            ___flmul@prod 0014              ___fltol@exp1 000A               main@arreglo 0100  
                    l2001 141A                      l2011 1460                      l2003 1428  
                    l2101 1AC4                      l2021 14DC                      l2013 1494  
                    l2005 142A                      l2103 1AD4                      l2111 1AFE  
                    l2031 1518                      l2023 14EC                      l2015 1496  
                    l2007 1434                      l2201 1D6E                      l2121 1B2A  
                    l2113 1B0E                      l2105 1AE4                      l2041 1544  
                    l2033 151A                      l2017 14A6                      l2009 143A  
                    l2211 1DD0                      l2203 1D7A                      l2123 1B3A  
                    l2131 1B64                      l2115 1B14                      l2107 1AF4  
                    l2051 157C                      l2035 1528                      l2027 1500  
                    l2043 1546                      l2019 14B6                      l2221 1E2E  
                    l2213 1DE6                      l2205 1D88                      l2141 1BA6  
                    l2133 1B74                      l2125 1B4A                      l2117 1B1A  
                    l2109 1AF6                      l2301 184E                      l2061 15FA  
                    l2037 1530                      l2029 150A                      l2045 1554  
                    l2223 1E34                      l2215 1E00                      l2207 1DB2  
                    l2135 1B8A                      l2127 1B5A                      l2119 1B28  
                    l2311 18F2                      l2303 186A                      l2071 1640  
                    l2055 15A6                      l2063 15FC                      l2047 1558  
                    l2039 1534                      l2225 1E36                      l2217 1E1C  
                    l2209 1DB6                      l2161 1C28                      l2153 1BDE  
                    l2137 1B9A                      l2145 1BBA                      l2129 1B5C  
                    l2401 23EC                      l2321 1948                      l2313 1900  
                    l2305 1876                      l2241 16AA                      l2233 167E  
                    l2081 166A                      l2073 164E                      l2065 160C  
                    l2057 15B2                      l2049 1566                      l2219 1E20  
                    l2171 1C6E                      l2163 1C30                      l2155 1BF8  
                    l2147 1BCA                      l2139 1BA2                      l2403 23F2  
                    l2323 1956                      l2315 191E                      l2307 1892  
                    l2251 16E6                      l2243 16BA                      l2235 168A  
                    l2411 2958                      l2083 166C                      l2075 1654  
                    l2067 161C                      l2059 15C0                      l2091 28D0  
                    l2181 1CC6                      l2173 1C8C                      l2165 1C40  
                    l2157 1C08                      l2149 1BCA                      l2333 19C0  
                    l2341 1A08                      l2325 195A                      l2317 1928  
                    l2309 18BC                      l2261 171C                      l2253 16EC  
                    l2245 16CA                      l2237 1698                      l2077 1656  
                    l2069 163C                      l2421 2216                      l2501 27F6  
                    l2093 28D4                      l2191 1D04                      l2183 1CCC  
                    l2175 1C8E                      l2167 1C54                      l2159 1C18  
                    l2095 1AA8                      l2351 1A7C                      l2343 1A22  
                    l2335 19CC                      l2327 1968                      l2319 1936  
                    l2263 172C                      l2255 16FA                      l2247 16D0  
                    l2239 169A                      l2407 2932                      l2079 165C  
                    l2431 2264                      l2423 2240                      l2415 21EC  
                    l2511 1ECC                      l2087 28B2                      l2193 1D08  
                    l2185 1CD6                      l2177 1C9E                      l2169 1C62  
                    l2097 1AB4                      l2353 1A8A                      l2345 1A36  
                    l2337 19DA                      l2329 1996                      l2281 17AE  
                    l2273 1776                      l2265 1732                      l2257 16FC  
                    l2249 16E0                      l2409 2948                      l2441 2290  
                    l2425 2242                      l2417 2202                      l2513 1EDA  
                    l2521 1FBA                      l2505 1E42                      l2089 28BE  
                    l2195 1D16                      l2187 1CE4                      l2179 1CB0  
                    l2099 1AC2                      l2371 25EC                      l2355 1A8C  
                    l2347 1A50                      l2339 1A04                      l2291 17F8  
                    l2283 17C6                      l2275 1782                      l2267 1752  
                    l2259 170C                      l2363 282A                      l2451 22C0  
                    l2427 2252                      l2523 1FF6                      l2507 1E62  
                    l2611 09E4                      l2603 097E                      l2197 1D44  
                    l2189 1CF6                      l2381 2664                      l2373 25FC  
                    l2349 1A6C                      l2357 1A92                      l2293 1808  
                    l2285 17D2                      l2277 178C                      l2269 1762  
                    l1901 1214                      l2365 283A                      l2453 22D0  
                    l2437 227C                      l2429 2256                      l2525 200A  
                    l2517 1F4A                      l2509 1EB8                      l2541 2916  
                    l2533 28F2                      l2461 2778                      l2701 0F30  
                    l2621 0ADA                      l2613 0A18                      l2605 0998  
                    l2375 262A                      l2391 235E                      l2359 1A96  
                    l2295 1814                      l2287 17DE                      l2279 17A2  
                    l1911 1244                      l1903 1224                      l2455 22E0  
                    l2447 22A4                      l2439 2286                      l2471 23F6  
                    l2527 2032                      l2519 1F86                      l2535 28FE  
                    l2463 278C                      l2711 0FFE                      l2703 0FA8  
                    l2631 0B90                      l2623 0B0E                      l2615 0A56  
                    l2551 0836                      l2543 080E                      l2377 263A  
                    l2369 25BE                      l2393 236E                      l2385 22F2  
                    l2297 1824                      l2289 17EC                      l1921 1284  
                    l1913 1252                      l1905 122A                      l2449 22B0  
                    l2473 2416                      l2529 2042                      l2537 2908  
                    l2465 27A0                      l2721 1020                      l2713 1002  
                    l2705 0FC8                      l2641 0BC2                      l2633 0B9E  
                    l2625 0B16                      l2617 0A88                      l2609 09DE  
                    l2561 088C                      l2553 085A                      l2545 0814  
                    l2379 265E                      l2395 237C                      l2387 2320  
                    l2299 183E                      l1931 12BE                      l1923 1286  
                    l1915 1254                      l1907 123C                      l2475 2454  
                    l2483 2494                      l2539 290A                      l2467 27A4  
                    l2459 276A                      l2731 1050                      l2723 1026  
                    l2715 1008                      l2707 0FE4                      l2643 0BD4  
                    l2651 0C14                      l2635 0BAA                      l2619 0AC6  
                    l2571 08DC                      l2563 0898                      l2555 0864  
                    l2547 0824                      l2811 21C4                      l2397 238E  
                    l2389 2330                      l1941 12D2                      l1933 12C2  
                    l1917 1264                      l1925 128E                      l1909 123E  
                    l2485 24A6                      l2477 247C                      l2469 27C2  
                    l2493 296A                      l2733 1056                      l2717 1010  
                    l2709 0FF2                      l2725 102C                      l2741 10EE  
                    l2661 0CFC                      l2653 0C1C                      l2645 0BE2  
                    l2637 0BB4                      l2629 0B56                      l2581 0906  
                    l2573 08E0                      l2565 08A0                      l2557 086C  
                    l2549 0832                      l2805 21A0                      l2821 288C  
                    l2831 26A8                      l2399 239C                      l1951 12E6  
                    l1943 12D6                      l1935 12C6                      l1927 129E  
                    l1919 1274                      l2479 2488                      l1871 24F4  
                    l2495 296E                      l2751 1152                      l2743 110C  
                    l2735 10AE                      l2727 103E                      l2719 101C  
                    l2671 0DBA                      l2663 0D30                      l2655 0C2C  
                    l2647 0BFA                      l2639 0BBC                      l2591 095E  
                    l2575 08E6                      l2559 087C                      l2567 08A4  
                    l2807 21B8                      l2823 28A8                      l2833 26AC  
                    l1961 12FA                      l1953 12EA                      l1945 12DA  
                    l1937 12CA                      l1929 12B0                      l2489 24EA  
                    l2497 27D4                      l1881 2576                      l1873 2506  
                    l2761 11A2                      l2753 1160                      l2745 1128  
                    l2737 10E2                      l2729 104C                      l2681 0E56  
                    l2673 0DD0                      l2657 0C40                      l2665 0D36  
                    l2649 0C0C                      l2593 0964                      l2577 08EE  
                    l2569 08CA                      l2585 0922                      l2817 2870  
                    l2841 29BE                      l2835 26BA                      l2827 2668  
                    l1971 1358                      l1955 12EE                      l1947 12DE  
                    l1939 12CE                      l1963 12FE                      l1891 11DA  
                    l2499 27E2                      l1875 2518                      l2755 1178  
                    l2747 1130                      l2739 10EA                      l2683 0EAC  
                    l2691 0EFE                      l2675 0E02                      l2667 0D54  
                    l2659 0CA4                      l2595 096C                      l2587 0948  
                    l2579 08FC                      l2771 208A                      l2819 2878  
                    l2843 29C2                      l2837 26CC                      l2829 267C  
                    l1981 138E                      l1973 136E                      l1965 1302  
                    l1957 12F2                      l1949 12E2                      l1893 11EA  
                    l1885 11BE                      l1877 2522                      l2757 1188  
                    l2749 113A                      l2693 0F0E                      l2685 0EB2  
                    l2677 0E12                      l2669 0D88                      l2589 095A  
                    l2781 20B8                      l2773 208E                      l2765 2054  
                    l2853 2702                      ?_pad 0010                      l2839 26D0  
                    l1991 13DE                      l1983 1398                      l1975 137A  
                    l1967 132C                      l1959 12F6                      l1895 11FA  
                    l1887 11CA                      l1879 2540                      l2759 119A  
                    l2695 0F16                      l2687 0EE6                      l2679 0E22  
                    l2791 2126                      l2775 2098                      l2767 2076  
                    l2855 272A                      l2847 26F8                      l1993 13EE  
                    l1985 13BA                      l1977 137E                      l1969 1348  
                    l1897 120A                      l1889 11D8                      l2697 0F1C  
                    l2689 0EFA                      l2777 20AA                      l2785 20C0  
                    l2769 207E                      l2857 272E                      l1995 13FC  
                    l1987 13CA                      l1979 138C                      l1899 120C  
                    l2699 0F24                      l2795 214E                      l2779 20B0  
                    l2787 20DE                      l2859 274A                      l1997 140A  
                    l2797 2164                      l2789 20FE                      l1999 1416  
                    l2799 2172                      STR_1 0809                      STR_2 0801  
                    STR_5 0805                      u2000 15C0                      u2001 15BC  
                    u2010 15FA                      u2011 15F6                      u2100 1AE4  
                    u2020 160C                      u2101 1AE0                      u2021 1608  
                    u2110 1B28                      u2030 161C                      u2111 1B24  
                    u2031 1618                      u2200 1CC6                      u2120 1B3A  
                    u2040 163C                      u3000 0B88                      u2201 1CC2  
                    u2121 1B36                      u2041 1638                      u3001 0B84  
                    u2210 1CE4                      u2130 1B4A                      u2050 164E  
                    u3010 0B9E                      u2211 1CE0                      u2131 1B46  
                    u2051 164A                      u3011 0B9A                      u2300 1E2E  
                    u2220 1D04                      u2140 1B8A                      u2060 166A  
                    u3100 0EFA                      u3020 0BD4                      u2301 1E2A  
                    u2221 1D00                      u2141 1B86                      u2061 1666  
                    u3101 0EF6                      u3021 0BD0                      u2230 1D16  
                    u2150 1BCA                      u2310 1698                      u2070 28F0  
                    u3110 0FA8                      u3030 0BE2                      u2231 1D12  
                    u2151 1BC6                      u2311 1694                      u2071 28EC  
                    u3111 0FA4                      u3031 0BDE                      u2240 1D44  
                    u2160 1C40                      u2080 1AC2                      u2400 1936  
                    u2320 16AA                      u3120 0FE4                      u3040 0C0C  
                    u3200 2076                      u2241 1D40                      u2161 1C3C  
                    u2081 1ABE                      u2401 1932                      u2321 16A6  
                    u3121 0FE0                      u3041 0C08                      u3201 2072  
                    u2250 1D5A                      u2170 1C62                      u2090 1AD4  
                    u2410 1956                      u2330 16BA                      u3130 0FF2  
                    u3050 0D54                      u3210 20FA                      u2251 1D56  
                    u2171 1C5E                      u2091 1AD0                      u2411 1952  
                    u2331 16B6                      u3131 0FEE                      u3051 0D50  
                    u3211 20F6                      u2260 1D6E                      u2180 1C8C  
                    u2500 25EC                      u2420 1968                      u2340 16FA  
                    u1700 11FA                      u3140 103E                      u3060 0DBA  
                    u3220 28A8                      u2261 1D6A                      u2181 1C88  
                    u2501 25E8                      u2421 1964                      u2341 16F6  
                    u1701 11F6                      u3141 103A                      u3061 0DB6  
                    u3221 28A4                      u3230 26A8                      u2270 1D88  
                    u2190 1CB0                      u2510 262A                      u2430 1996  
                    u2350 170C                      u1710 123C                      u3150 110C  
                    u3070 0E02                      u3231 26A4                      u2271 1D84  
                    u2191 1CAC                      u2511 2626                      u2431 1992  
                    u2351 1708                      u1711 1238                      u3151 1108  
                    u3071 0DFE                      u3240 26CC                      u2280 1DD0  
                    u2520 265E                      u2440 19AC                      u2360 171C  
                    u1800 136E                      u1720 1252                      u2600 2236  
                    u1640 2506                      u3160 1128                      u3080 0E12  
                    u3241 26C8                      u2281 1DCC                      u2521 265A  
                    u2441 19A8                      u2361 1718                      u1801 136A  
                    u1721 124E                      u1641 2502                      u3161 1124  
                    u3081 0E0E                      u3250 26EE                      u2290 1E00  
                    u2530 2320                      u2450 19C0                      u2370 1752  
                    u1810 138C                      u1730 1264                      u2610 2264  
                    u1650 2518                      u3170 1172                      u3090 0EAC  
                    u3251 26EA                      u2291 1DFC                      u2531 231C  
                    u2451 19BC                      u2371 174E                      u1811 1388  
                    u1731 1260                      u2611 2260                      u1651 2514  
                    u3171 116C                      u3091 0EA8                      u2540 235E  
                    u2460 19DA                      u2380 1762                      u1900 14DC  
                    u1820 13AC                      u1740 1274                      u2620 2278  
                    u2700 247C                      u1660 2540                      u3180 1174  
                    u3260 274A                      u2541 235A                      u2461 19D6  
                    u2381 175E                      u1901 14D8                      u1821 13A8  
                    u1741 1270                      u2621 2274                      u2605 222C  
                    u2701 2478                      u1661 253C                      u3261 2746  
                    u2550 237C                      u2470 1A22                      u2390 18DC  
                    u1910 14EC                      u1830 13BA                      u1750 12B0  
                    u2630 22A0                      u2710 24A6                      u1670 2576  
                    u3190 1188                      u2551 2378                      u2471 1A1E  
                    u1911 14E8                      u1831 13B6                      u1751 12AC  
                    u2631 229C                      u2711 24A2                      u1671 2572  
                    u3191 1184                      u2560 239C                      u2480 1A50  
                    u1920 1518                      u1840 13CA                      u1760 12BE  
                    u1680 11D8                      u2640 22C0                      u2561 2398  
                    u2481 1A4C                      u1921 1514                      u1841 13C6  
                    u1761 12BA                      u1681 11D4                      u2641 22BC  
                    u2570 23EC                      u2490 1A8A                      u1930 1528  
                    u1850 13FC                      u1770 132C                      u1690 11EA  
                    u2650 22D0                      u2730 24E0                      u2810 1F46  
                    u2571 23E8                      u2491 1A86                      u2395 18D2  
                    u1931 1524                      u1851 13F8                      u1771 1328  
                    u1691 11E6                      u2651 22CC                      u2731 24DA  
                    u2811 1F42                      u2580 2948                      u1940 1544  
                    u1860 140A                      u1780 1344                      u2740 24E2  
                    u2820 1F6A                      u2660 2778                      u2900 088C  
                    u2581 2944                      u1941 1540                      u1861 1406  
                    u1781 133E                      u2725 24B8                      u2805 1EEE  
                    u2661 2774                      u2901 0888                      u1950 1554  
                    u1870 1428                      u1790 1346                      u2590 2202  
                    u2830 1F86                      u2806 1EF8                      u2670 27C2  
                    u2750 299A                      u2910 08CA                      u1951 1550  
                    u1871 1424                      u2591 21FE                      u2831 1F82  
                    u2807 1F08                      u2671 27BE                      u2751 2996  
                    u2911 08C6                      u1960 1566                      u1880 1460  
                    u2680 2436                      u2840 1FDA                      u2760 27E2  
                    u2920 08DC                      u1961 1562                      u1881 145C  
                    u2825 1F60                      u2761 27DE                      u2921 08D8  
                    u1970 157C                      u1890 14A6                      u2690 2454  
                    u2850 1FF6                      u2770 1E8A                      u2930 0948  
                    u1971 1578                      u1891 14A2                      u2691 2450  
                    u2851 1FF2                      u2931 0944                      u1980 1592  
                    u2860 2032                      u2780 1EB8                      u2940 095A  
                    u1981 158E                      u2685 242C                      u2861 202E  
                    u2845 1FD0                      u2781 1EB4                      u2941 0956  
                    u1990 15A6                      u2790 1EDA                      u2870 2930  
                    u2950 09CA                      u1991 15A2                      u2791 1ED6  
                    u2775 1E80                      u2871 292C                      u2951 09C6  
                    u2960 0A56                      u2880 0832                      u2961 0A52  
                    u2881 082E                      u2970 0A88                      u2890 087C  
                    u2971 0A84                      u2891 0878                      u2980 0AC6  
                    u2981 0AC2                      u2990 0B52                      u2991 0B4E  
                    _dbuf 0060                      _labs 27D4                      _main 26F8  
                    _prec 0053                      pad@i 0016                      pad@p 0013  
                    fsr1h 0FE2                      fsr2h 0FDA                      indf2 0FDF  
                    fsr1l 0FE1                      fsr2l 0FD9             ___fpclassifyf 23F6  
                    prodh 0FF4                      prodl 0FF3                      start 0000  
         ___fldiv@new_exp 0012              ___param_bank 0000                     ??_pad 0015  
           ___fltol@sign1 0009                     ?_labs 0001           __end_of___fladd 167E  
                   ?_main 0001           __end_of___fldiv 1E42           __end_of___flneg 296A  
         __end_of___flmul 1AA8           __end_of___flsub 2870           __end_of___fltol 22F2  
            vfpfcnvrt@fmt 0038                     _flags 0055                     _fputc 24F4  
                   _fputs 28B2                     labs@a 0001                     pad@fp 0010  
                   _width 0051                     _putch 29D8                     main@i 01C8  
            main@num_unos 01CA                     tablat 0FF5                     status 0FD8  
          ?___fpclassifyf 0001           __initialization 299C              __end_of_labs 282A  
            __end_of_main 276A                    ??_labs 0005                    ??_main 0047  
           __activetblptr 0002                    ?_fputc 0001                    ?_fputs 000A  
            contar_unos@i 0009                    ?_putch 0001              vfprintf@cfmt 0045  
                  ___flge 22F2                    ___fleq 25BE                 ??___fladd 0009  
               ??___fldiv 0009                 ??___flneg 0005                 ??___flmul 0009  
               ??___flsub 0022                 ??___fltol 0005                    _efgtoa 080E  
                  _floorf 1E42                    _memcpy 28F2                    clear_0 29A2  
                  clear_1 29AE                    isa$std 0001                    _printf 29BE  
                  pad@buf 0012                    _strcpy 296A                    fputc@c 0001  
                  fputs@c 000D                    fputs@i 000E                    fputs@s 000A  
         ___fpclassifyf@e 0009           ___fpclassifyf@u 000B           ___fpclassifyf@x 0001  
            __mediumconst 0000                    tblptrh 0FF7                    tblptrl 0FF6  
                  tblptru 0FF8                    putch@c 0001  contar_unos@num_elementos 0003  
        __end_of_vfprintf 28B2                ___flge@ff1 001A                ___flge@ff2 001E  
         ??___fpclassifyf 0005                ___fleq@ff1 0001                ___fleq@ff2 0005  
              __accesstop 0060   __end_of__initialization 29B4                ___flneg@f1 0001  
           ___rparam_used 0001                ___fltol@f1 0001            __pcstackCOMRAM 0001  
      contar_unos@arreglo 0001             __end_of_fputc 25BE             __end_of_fputs 28F2  
           __end_of_putch 29DA                   ??_fputc 0005                   ??_fputs 000D  
                 ??_putch 0001                __pbssBANK0 0060                _efgtoa$597 00B6  
                 ?___flge 001A                   ?___fleq 0001                   ?_efgtoa 002E  
                 ?_floorf 001A                   ?_memcpy 0001                   ?_printf 00DC  
                 ?_strcpy 0001                   __Hparam 0000                   __Lparam 0000  
                 ___fladd 11BE                   ___fldiv 1AA8                   ___flneg 2932  
                 ___flmul 167E                   ___flsub 282A                   ___fltol 21EC  
               ?_vfprintf 0041              __psmallconst 0800                   __pcinit 299C  
                 __ramtop 0800                   __ptext0 26F8                   __ptext1 29BE  
                 __ptext2 2870                   __ptext3 2054                   __ptext4 080E  
                 __ptext5 296A                   __ptext6 276A                   __ptext7 28B2  
                 __ptext8 24F4                   __ptext9 29D8                   efgtoa@c 0034  
                 efgtoa@d 00BB                   efgtoa@e 00BF                   efgtoa@f 0030  
                 efgtoa@g 00D4                   efgtoa@h 00C9                   efgtoa@i 00C7  
                 efgtoa@l 00CD                   efgtoa@m 00BD                   efgtoa@n 00D2  
                 efgtoa@p 00B2                   efgtoa@t 00B4                   efgtoa@u 00D8  
                 efgtoa@w 00C1      end_of_initialization 29B4                   floorf@e 0028  
                 floorf@m 0024                   floorf@u 002A                   floorf@x 001A  
                 memcpy@d 0006                   memcpy@n 0003                   memcpy@s 0007  
                 fputc@fp 0003             __Lmediumconst 0000                   fputs@fp 000B  
       __end_of_vfpfcnvrt 21EC                efgtoa@mode 00B9                efgtoa@sign 00D1  
                 postdec2 0FDD                   postinc0 0FEE                   postinc1 0FE6  
                 postinc2 0FDE          vfpfcnvrt@convarg 003B                ??_vfprintf 0045  
                 strcpy@d 0004               ___fladd@grs 0010               ___fldiv@grs 0014  
             ___fldiv@rem 000D               ___flmul@grs 000E            __end_of___flge 23F6  
          __end_of___fleq 2668       contar_unos@contador 0007               vfpfcnvrt@ap 0039  
             vfpfcnvrt@cp 0040               vfpfcnvrt@fp 0036            __end_of_efgtoa 11BE  
          __end_of_floorf 2054            __end_of_memcpy 2932                floorf@F521 0049  
           ??_contar_unos 0005            __end_of_printf 29D8            __end_of_strcpy 299C  
     start_initialization 299C               __end_of_pad 27D4     __end_of___fpclassifyf 24F4  
             vfprintf@fmt 0043                  ??___flge 0022                  ??___fleq 0009  
                ??_efgtoa 0035                  ??_floorf 001E                  ??_memcpy 0005  
                ??_printf 0046                  ??_strcpy 0003                 ___fladd@a 0005  
               ___fladd@b 0001                 ___fldiv@a 0005                 ___fldiv@b 0001  
               ___flmul@a 0005                 ___flmul@b 0001               __pbssCOMRAM 0049  
               ___flsub@a 001E                 ___flsub@b 001A             __pcstackBANK0 00B0  
           __pcstackBANK1 0100       __end_of_contar_unos 26F8                  ?___fladd 0001  
                ?___fldiv 0001                  ?___flneg 0001                  ?___flmul 0001  
                ?___flsub 001A                  ?___fltol 0001               __smallconst 0800  
               _vfpfcnvrt 2054               _contar_unos 2668                vfpfcnvrt@c 003F  
                __Hrparam 0000                 memcpy@tmp 0005                vfprintf@ap 0044  
                __Lrparam 0000                vfprintf@fp 0041                ?_vfpfcnvrt 0036  
        contar_unos@valor 000B        ___fpclassifyf@F465 004D                  __ptext10 28F2  
                __ptext11 27D4                  __ptext20 25BE                  __ptext12 1E42  
                __ptext21 1AA8                  __ptext13 23F6                  __ptext22 2668  
                __ptext14 21EC                  __ptext15 282A                  __ptext16 11BE  
                __ptext17 2932                  __ptext18 167E                  __ptext19 22F2  
              strcpy@dest 0001                  efgtoa@fp 002E                  efgtoa@ne 00B0  
                efgtoa@pp 00B8                  efgtoa@ou 00C3                  isa$xinst 0000  
                _vfprintf 2870                 printf@fmt 00DC                  memcpy@d1 0001  
                memcpy@s1 0002                 strcpy@src 0002               efgtoa@nmode 00BA  
                printf@ap 0046               ??_vfpfcnvrt 003A             ___fladd@signs 000D  
            ___fladd@aexp 000E              ___fladd@bexp 000F  
